MPLINK 5.00, LINKER
Linker Map File - Created Tue Oct 21 22:08:30 2014

                                 Section Info
                  Section       Type    Address   Location Size(Bytes)
                ---------  ---------  ---------  ---------  ---------
               _entry_scn       code   0x000000    program   0x000006
           .code___init.o       code   0x000006    program   0x000002
    vec_int_high_priority       code   0x000008    program   0x000006
                   .cinit    romdata   0x00000e    program   0x00000e
             .code_main.o       code   0x00001c    program   0x0007fe
                     PROG       code   0x00081a    program   0x0003f6
               _cinit_scn       code   0x000c10    program   0x00009e
            .code_uopen.o       code   0x000cae    program   0x00008a
          .code_adcopen.o       code   0x000d38    program   0x00006e
         .code_pw1setdc.o       code   0x000da6    program   0x00005e
            .code_uputs.o       code   0x000e04    program   0x00004c
           .code_t0open.o       code   0x000e50    program   0x000038
          .code_pw1open.o       code   0x000e88    program   0x000030
             D10KTCYXCODE       code   0x000eb8    program   0x00002e
           .code_uwrite.o       code   0x000ee6    program   0x00002e
                    .code       code   0x000f14    program   0x000020
             _startup_scn       code   0x000f34    program   0x00001c
              D10TCYXCODE       code   0x000f50    program   0x000016
          .code_adcread.o       code   0x000f66    program   0x000012
          .code_adcbusy.o       code   0x000f78    program   0x00000a
          .code_adcconv.o       code   0x000f82    program   0x000004
         .romdata_udefs.o    romdata   0x000f86    program   0x000000
         .idata_uopen.o_i    romdata   0x000f86    program   0x000000
         .romdata_uopen.o    romdata   0x000f86    program   0x000000
         .idata_udefs.o_i    romdata   0x000f86    program   0x000000
       .romdata_adcread.o    romdata   0x000f86    program   0x000000
      .idata_pw1setdc.o_i    romdata   0x000f86    program   0x000000
      .romdata_pw1setdc.o    romdata   0x000f86    program   0x000000
        .romdata_uwrite.o    romdata   0x000f86    program   0x000000
        .romdata___init.o    romdata   0x000f86    program   0x000000
        .idata_uwrite.o_i    romdata   0x000f86    program   0x000000
         .idata_uputs.o_i    romdata   0x000f86    program   0x000000
         .romdata_uputs.o    romdata   0x000f86    program   0x000000
        .romdata_t0open.o    romdata   0x000f86    program   0x000000
        .idata_t0open.o_i    romdata   0x000f86    program   0x000000
       .romdata_pw1open.o    romdata   0x000f86    program   0x000000
       .idata_pw1open.o_i    romdata   0x000f86    program   0x000000
       .romdata_adcopen.o    romdata   0x000f86    program   0x000000
       .romdata_adcconv.o    romdata   0x000f86    program   0x000000
         .romdata_c018i.o    romdata   0x000f86    program   0x000000
       .romdata_adcbusy.o    romdata   0x000f86    program   0x000000
          .idata_main.o_i    romdata   0x000f86    program   0x00000e
          .romdata_main.o    romdata   0x000f86    program   0x000000
         .idata_c018i.o_i    romdata   0x000f94    program   0x000000
            .code_udefs.o       code   0x000f94    program   0x000000
            .code_c018i.o       code   0x000f94    program   0x000000
       .idata_adcbusy.o_i    romdata   0x000f94    program   0x000000
        .idata___init.o_i    romdata   0x000f94    program   0x000000
       .idata_adcconv.o_i    romdata   0x000f94    program   0x000000
       .idata_adcopen.o_i    romdata   0x000f94    program   0x000000
       .idata_adcread.o_i    romdata   0x000f94    program   0x000000
                   tabela    romdata   0x002000    program   0x000800
    .config_300001_main.o    romdata   0x300001    program   0x000001
    .config_300002_main.o    romdata   0x300002    program   0x000001
    .config_300003_main.o    romdata   0x300003    program   0x000001
    .config_300006_main.o    romdata   0x300006    program   0x000001
                 .tmpdata      udata   0x000000       data   0x00001c
                MATH_DATA      udata   0x00001c       data   0x000014
                DELAYDAT2      udata   0x000030       data   0x000001
                DELAYDAT1      udata   0x000031       data   0x000001
            .udata_main.o      udata   0x000080       data   0x00003f
            .idata_main.o      idata   0x0000bf       data   0x00000e
           .udata_c018i.o      udata   0x0000cd       data   0x00000a
           .udata_udefs.o      udata   0x0000d7       data   0x000001
           .idata_uopen.o      idata   0x0000d8       data   0x000000
         .udata_adcread.o      udata   0x0000d8       data   0x000000
         .idata_adcread.o      idata   0x0000d8       data   0x000000
        .udata_pw1setdc.o      udata   0x0000d8       data   0x000000
        .idata_pw1setdc.o      idata   0x0000d8       data   0x000000
          .udata___init.o      udata   0x0000d8       data   0x000000
          .idata___init.o      idata   0x0000d8       data   0x000000
           .udata_uputs.o      udata   0x0000d8       data   0x000000
           .idata_uputs.o      idata   0x0000d8       data   0x000000
          .udata_uwrite.o      udata   0x0000d8       data   0x000000
          .idata_uwrite.o      idata   0x0000d8       data   0x000000
           .idata_udefs.o      idata   0x0000d8       data   0x000000
           .udata_uopen.o      udata   0x0000d8       data   0x000000
          .idata_t0open.o      idata   0x0000d8       data   0x000000
          .udata_t0open.o      udata   0x0000d8       data   0x000000
         .idata_pw1open.o      idata   0x0000d8       data   0x000000
         .udata_pw1open.o      udata   0x0000d8       data   0x000000
         .idata_adcopen.o      idata   0x0000d8       data   0x000000
         .udata_adcopen.o      udata   0x0000d8       data   0x000000
         .idata_adcconv.o      idata   0x0000d8       data   0x000000
         .udata_adcconv.o      udata   0x0000d8       data   0x000000
         .idata_adcbusy.o      idata   0x0000d8       data   0x000000
         .udata_adcbusy.o      udata   0x0000d8       data   0x000000
           .idata_c018i.o      idata   0x0000d8       data   0x000000
                   .stack      udata   0x000500       data   0x000100
            SFR_UNBANKED0      udata   0x000f80       data   0x000080



                              Program Memory Usage 
                               Start         End      
                           ---------   ---------      
                            0x000000    0x000f93      
                            0x002000    0x0027ff      
                            0x300001    0x300003      
                            0x300006    0x300006      
            6040 out of 33048 program addresses used, program memory utilization is 18%



                              Symbols - Sorted by Name
                     Name    Address   Location    Storage File                     
                ---------  ---------  ---------  --------- ---------                
                  BusyADC   0x000f78    program     extern E:\3.46\pic18-lt\cxx-framework\src\pmc_common\ADC\adcbusy.c
               ConvertADC   0x000f82    program     extern E:\3.46\pic18-lt\cxx-framework\src\pmc_common\ADC\adcconv.c
                   D10K_1   0x000ec4    program     static E:\3.46\pic18-lt\cxx-framework\src\traditional\delays\d10ktcyx.asm
                    D10Kl   0x000ed0    program     static E:\3.46\pic18-lt\cxx-framework\src\traditional\delays\d10ktcyx.asm
                    D10Kx   0x000ec2    program     static E:\3.46\pic18-lt\cxx-framework\src\traditional\delays\d10ktcyx.asm
                    D10_1   0x000f60    program     static E:\3.46\pic18-lt\cxx-framework\src\traditional\delays\d10tcyx.asm
                     D10x   0x000f58    program     static E:\3.46\pic18-lt\cxx-framework\src\traditional\delays\d10tcyx.asm
             Delay10KTCYx   0x000eb8    program     extern E:\3.46\pic18-lt\cxx-framework\src\traditional\delays\d10ktcyx.asm
              Delay10TCYx   0x000f50    program     extern E:\3.46\pic18-lt\cxx-framework\src\traditional\delays\d10tcyx.asm
                 FLO1632S   0x00081e    program     extern E:\3.46\pic18-lt\cxx-framework\src\traditional\math\cast16FP.asm
                 FLO1632U   0x00081a    program     extern E:\3.46\pic18-lt\cxx-framework\src\traditional\math\cast16FP.asm
                    FPA32   0x000846    program     extern E:\3.46\pic18-lt\cxx-framework\src\traditional\math\addFP.asm
                    FPM32   0x000972    program     extern E:\3.46\pic18-lt\cxx-framework\src\traditional\math\mulFP.asm
                    FPS32   0x000844    program     extern E:\3.46\pic18-lt\cxx-framework\src\traditional\math\addFP.asm
                 FXM1616S   0x000a4c    program     extern E:\3.46\pic18-lt\cxx-framework\src\traditional\math\fxm1616s.asm
                  INT3216   0x000aa6    program     extern E:\3.46\pic18-lt\cxx-framework\src\traditional\math\castFP16.asm
        ISR_High_Priority   0x00001c    program     extern C:\Users\JUNIOR\Google Drive\Maua\Aplicada2-Pic\labintegrado2014\Firmware\controlador PI\main.c
                  OpenADC   0x000d38    program     extern E:\3.46\pic18-lt\cxx-framework\src\pmc_common\ADC\adcopen.c
                 OpenPWM1   0x000e88    program     extern E:\3.46\pic18-lt\cxx-framework\src\pmc_common\PWM\pw1open.c
         OpenPWM1ConfigIO   0x000eb4    program     extern E:\3.46\pic18-lt\cxx-framework\src\pmc_common\PWM\pw1open.c
               OpenTimer0   0x000e50    program     extern E:\3.46\pic18-lt\cxx-framework\src\pmc_common\Timers\t0open.c
                OpenUSART   0x000cae    program     extern E:\3.46\pic18-lt\cxx-framework\src\pmc_common\USART\uopen.c
                  ReadADC   0x000f66    program     extern E:\3.46\pic18-lt\cxx-framework\src\pmc_common\ADC\adcread.c
                SetDCPWM1   0x000da6    program     extern E:\3.46\pic18-lt\cxx-framework\src\pmc_common\PWM\pw1setdc.c
               TSIGN1616A   0x000a98    program     static E:\3.46\pic18-lt\cxx-framework\src\traditional\math\fxm1616s.asm
               WriteUSART   0x000ee6    program     extern E:\3.46\pic18-lt\cxx-framework\src\pmc_common\USART\uwrite.c
       _D10KTCYXCODE_0010   0x000ec8    program     static E:\3.46\pic18-lt\cxx-framework\src\traditional\delays\d10ktcyx.asm
       _D10KTCYXCODE_001C   0x000ed4    program     static E:\3.46\pic18-lt\cxx-framework\src\traditional\delays\d10ktcyx.asm
        _D10TCYXCODE_000A   0x000f5a    program     static E:\3.46\pic18-lt\cxx-framework\src\traditional\delays\d10tcyx.asm
        _D10TCYXCODE_000C   0x000f5c    program     static E:\3.46\pic18-lt\cxx-framework\src\traditional\delays\d10tcyx.asm
        _D10TCYXCODE_000E   0x000f5e    program     static E:\3.46\pic18-lt\cxx-framework\src\traditional\delays\d10tcyx.asm
                 __FpExit   0x000b10    program     extern E:\3.46\pic18-lt\cxx-framework\src\traditional\math\packFP.asm
                 __FpPack   0x000b3c    program     extern E:\3.46\pic18-lt\cxx-framework\src\traditional\math\packFP.asm
            __FpReturnNaN   0x000b04    program     extern E:\3.46\pic18-lt\cxx-framework\src\traditional\math\packFP.asm
         __FpReturnNegInf   0x000b16    program     extern E:\3.46\pic18-lt\cxx-framework\src\traditional\math\packFP.asm
        __FpReturnNegZero   0x000b2e    program     extern E:\3.46\pic18-lt\cxx-framework\src\traditional\math\packFP.asm
         __FpReturnPosInf   0x000b1c    program     extern E:\3.46\pic18-lt\cxx-framework\src\traditional\math\packFP.asm
        __FpReturnPosZero   0x000b36    program     extern E:\3.46\pic18-lt\cxx-framework\src\traditional\math\packFP.asm
        __FpReturnSignInf   0x000b12    program     extern E:\3.46\pic18-lt\cxx-framework\src\traditional\math\packFP.asm
       __FpReturnSignZero   0x000b2a    program     extern E:\3.46\pic18-lt\cxx-framework\src\traditional\math\packFP.asm
              __FpReturnW   0x000b94    program     extern E:\3.46\pic18-lt\cxx-framework\src\traditional\math\packFP.asm
              __FpUnPackA   0x000bb4    program     extern E:\3.46\pic18-lt\cxx-framework\src\traditional\math\UnpackFP.asm
              __FpUnPackB   0x000be4    program     extern E:\3.46\pic18-lt\cxx-framework\src\traditional\math\UnpackFP.asm
       ___return_lbl00000   0x00000c    program     static                          
       ___return_lbl00000   0x000004    program     static                          
       ___return_lbl00001   0x000f4e    program     static                          
       ___return_lbl00002   0x000cac    program     static                          
       ___return_lbl00025   0x000550    program     static                          
               __config_0   0x300001    program     static C:\Users\JUNIOR\Google Drive\Maua\Aplicada2-Pic\labintegrado2014\Firmware\controlador PI\main.c
               __config_1   0x300002    program     static C:\Users\JUNIOR\Google Drive\Maua\Aplicada2-Pic\labintegrado2014\Firmware\controlador PI\main.c
               __config_2   0x300003    program     static C:\Users\JUNIOR\Google Drive\Maua\Aplicada2-Pic\labintegrado2014\Firmware\controlador PI\main.c
               __config_3   0x300006    program     static C:\Users\JUNIOR\Google Drive\Maua\Aplicada2-Pic\labintegrado2014\Firmware\controlador PI\main.c
                   __init   0x000006    program     extern E:\3.46\pic18-lt\cxx-framework\src\traditional\stdclib\__init.c
            __zero_memory   0x000f14    program     extern E:\3.46\pic18-lt\cxx-framework\src\traditional\proc\p18f4520.asm
                _do_cinit   0x000c10    program     extern E:\3.46\pic18-lt\cxx-framework\src\traditional\startup\c018i.c
                   _entry   0x000000    program     extern E:\3.46\pic18-lt\cxx-framework\src\traditional\startup\c018i.c
                 _startup   0x000f34    program     extern E:\3.46\pic18-lt\cxx-framework\src\traditional\startup\c018i.c
                       a1   0x002002    program     extern C:\Users\JUNIOR\Google Drive\Maua\Aplicada2-Pic\labintegrado2014\Firmware\controlador PI\main.c
                      a10   0x002014    program     extern C:\Users\JUNIOR\Google Drive\Maua\Aplicada2-Pic\labintegrado2014\Firmware\controlador PI\main.c
                     a100   0x0020c8    program     extern C:\Users\JUNIOR\Google Drive\Maua\Aplicada2-Pic\labintegrado2014\Firmware\controlador PI\main.c
                    a1000   0x0027d0    program     extern C:\Users\JUNIOR\Google Drive\Maua\Aplicada2-Pic\labintegrado2014\Firmware\controlador PI\main.c
                    a1001   0x0027d2    program     extern C:\Users\JUNIOR\Google Drive\Maua\Aplicada2-Pic\labintegrado2014\Firmware\controlador PI\main.c
                    a1002   0x0027d4    program     extern C:\Users\JUNIOR\Google Drive\Maua\Aplicada2-Pic\labintegrado2014\Firmware\controlador PI\main.c
                    a1003   0x0027d6    program     extern C:\Users\JUNIOR\Google Drive\Maua\Aplicada2-Pic\labintegrado2014\Firmware\controlador PI\main.c
                    a1004   0x0027d8    program     extern C:\Users\JUNIOR\Google Drive\Maua\Aplicada2-Pic\labintegrado2014\Firmware\controlador PI\main.c
                    a1005   0x0027da    program     extern C:\Users\JUNIOR\Google Drive\Maua\Aplicada2-Pic\labintegrado2014\Firmware\controlador PI\main.c
                    a1006   0x0027dc    program     extern C:\Users\JUNIOR\Google Drive\Maua\Aplicada2-Pic\labintegrado2014\Firmware\controlador PI\main.c
                    a1007   0x0027de    program     extern C:\Users\JUNIOR\Google Drive\Maua\Aplicada2-Pic\labintegrado2014\Firmware\controlador PI\main.c
                    a1008   0x0027e0    program     extern C:\Users\JUNIOR\Google Drive\Maua\Aplicada2-Pic\labintegrado2014\Firmware\controlador PI\main.c
                    a1009   0x0027e2    program     extern C:\Users\JUNIOR\Google Drive\Maua\Aplicada2-Pic\labintegrado2014\Firmware\controlador PI\main.c
                     a101   0x0020ca    program     extern C:\Users\JUNIOR\Google Drive\Maua\Aplicada2-Pic\labintegrado2014\Firmware\controlador PI\main.c
                    a1010   0x0027e4    program     extern C:\Users\JUNIOR\Google Drive\Maua\Aplicada2-Pic\labintegrado2014\Firmware\controlador PI\main.c
                    a1011   0x0027e6    program     extern C:\Users\JUNIOR\Google Drive\Maua\Aplicada2-Pic\labintegrado2014\Firmware\controlador PI\main.c
                    a1012   0x0027e8    program     extern C:\Users\JUNIOR\Google Drive\Maua\Aplicada2-Pic\labintegrado2014\Firmware\controlador PI\main.c
                    a1013   0x0027ea    program     extern C:\Users\JUNIOR\Google Drive\Maua\Aplicada2-Pic\labintegrado2014\Firmware\controlador PI\main.c
                    a1014   0x0027ec    program     extern C:\Users\JUNIOR\Google Drive\Maua\Aplicada2-Pic\labintegrado2014\Firmware\controlador PI\main.c
                    a1015   0x0027ee    program     extern C:\Users\JUNIOR\Google Drive\Maua\Aplicada2-Pic\labintegrado2014\Firmware\controlador PI\main.c
                    a1016   0x0027f0    program     extern C:\Users\JUNIOR\Google Drive\Maua\Aplicada2-Pic\labintegrado2014\Firmware\controlador PI\main.c
                    a1017   0x0027f2    program     extern C:\Users\JUNIOR\Google Drive\Maua\Aplicada2-Pic\labintegrado2014\Firmware\controlador PI\main.c
                    a1018   0x0027f4    program     extern C:\Users\JUNIOR\Google Drive\Maua\Aplicada2-Pic\labintegrado2014\Firmware\controlador PI\main.c
                    a1019   0x0027f6    program     extern C:\Users\JUNIOR\Google Drive\Maua\Aplicada2-Pic\labintegrado2014\Firmware\controlador PI\main.c
                     a102   0x0020cc    program     extern C:\Users\JUNIOR\Google Drive\Maua\Aplicada2-Pic\labintegrado2014\Firmware\controlador PI\main.c
                    a1020   0x0027f8    program     extern C:\Users\JUNIOR\Google Drive\Maua\Aplicada2-Pic\labintegrado2014\Firmware\controlador PI\main.c
                    a1021   0x0027fa    program     extern C:\Users\JUNIOR\Google Drive\Maua\Aplicada2-Pic\labintegrado2014\Firmware\controlador PI\main.c
                    a1022   0x0027fc    program     extern C:\Users\JUNIOR\Google Drive\Maua\Aplicada2-Pic\labintegrado2014\Firmware\controlador PI\main.c
                    a1023   0x0027fe    program     extern C:\Users\JUNIOR\Google Drive\Maua\Aplicada2-Pic\labintegrado2014\Firmware\controlador PI\main.c
                     a103   0x0020ce    program     extern C:\Users\JUNIOR\Google Drive\Maua\Aplicada2-Pic\labintegrado2014\Firmware\controlador PI\main.c
                     a104   0x0020d0    program     extern C:\Users\JUNIOR\Google Drive\Maua\Aplicada2-Pic\labintegrado2014\Firmware\controlador PI\main.c
                     a105   0x0020d2    program     extern C:\Users\JUNIOR\Google Drive\Maua\Aplicada2-Pic\labintegrado2014\Firmware\controlador PI\main.c
                     a106   0x0020d4    program     extern C:\Users\JUNIOR\Google Drive\Maua\Aplicada2-Pic\labintegrado2014\Firmware\controlador PI\main.c
                     a107   0x0020d6    program     extern C:\Users\JUNIOR\Google Drive\Maua\Aplicada2-Pic\labintegrado2014\Firmware\controlador PI\main.c
                     a108   0x0020d8    program     extern C:\Users\JUNIOR\Google Drive\Maua\Aplicada2-Pic\labintegrado2014\Firmware\controlador PI\main.c
                     a109   0x0020da    program     extern C:\Users\JUNIOR\Google Drive\Maua\Aplicada2-Pic\labintegrado2014\Firmware\controlador PI\main.c
                      a11   0x002016    program     extern C:\Users\JUNIOR\Google Drive\Maua\Aplicada2-Pic\labintegrado2014\Firmware\controlador PI\main.c
                     a110   0x0020dc    program     extern C:\Users\JUNIOR\Google Drive\Maua\Aplicada2-Pic\labintegrado2014\Firmware\controlador PI\main.c
                     a111   0x0020de    program     extern C:\Users\JUNIOR\Google Drive\Maua\Aplicada2-Pic\labintegrado2014\Firmware\controlador PI\main.c
                     a112   0x0020e0    program     extern C:\Users\JUNIOR\Google Drive\Maua\Aplicada2-Pic\labintegrado2014\Firmware\controlador PI\main.c
                     a113   0x0020e2    program     extern C:\Users\JUNIOR\Google Drive\Maua\Aplicada2-Pic\labintegrado2014\Firmware\controlador PI\main.c
                     a114   0x0020e4    program     extern C:\Users\JUNIOR\Google Drive\Maua\Aplicada2-Pic\labintegrado2014\Firmware\controlador PI\main.c
                     a115   0x0020e6    program     extern C:\Users\JUNIOR\Google Drive\Maua\Aplicada2-Pic\labintegrado2014\Firmware\controlador PI\main.c
                     a116   0x0020e8    program     extern C:\Users\JUNIOR\Google Drive\Maua\Aplicada2-Pic\labintegrado2014\Firmware\controlador PI\main.c
                     a117   0x0020ea    program     extern C:\Users\JUNIOR\Google Drive\Maua\Aplicada2-Pic\labintegrado2014\Firmware\controlador PI\main.c
                     a118   0x0020ec    program     extern C:\Users\JUNIOR\Google Drive\Maua\Aplicada2-Pic\labintegrado2014\Firmware\controlador PI\main.c
                     a119   0x0020ee    program     extern C:\Users\JUNIOR\Google Drive\Maua\Aplicada2-Pic\labintegrado2014\Firmware\controlador PI\main.c
                      a12   0x002018    program     extern C:\Users\JUNIOR\Google Drive\Maua\Aplicada2-Pic\labintegrado2014\Firmware\controlador PI\main.c
                     a120   0x0020f0    program     extern C:\Users\JUNIOR\Google Drive\Maua\Aplicada2-Pic\labintegrado2014\Firmware\controlador PI\main.c
                     a121   0x0020f2    program     extern C:\Users\JUNIOR\Google Drive\Maua\Aplicada2-Pic\labintegrado2014\Firmware\controlador PI\main.c
                     a122   0x0020f4    program     extern C:\Users\JUNIOR\Google Drive\Maua\Aplicada2-Pic\labintegrado2014\Firmware\controlador PI\main.c
                     a123   0x0020f6    program     extern C:\Users\JUNIOR\Google Drive\Maua\Aplicada2-Pic\labintegrado2014\Firmware\controlador PI\main.c
                     a124   0x0020f8    program     extern C:\Users\JUNIOR\Google Drive\Maua\Aplicada2-Pic\labintegrado2014\Firmware\controlador PI\main.c
                     a125   0x0020fa    program     extern C:\Users\JUNIOR\Google Drive\Maua\Aplicada2-Pic\labintegrado2014\Firmware\controlador PI\main.c
                     a126   0x0020fc    program     extern C:\Users\JUNIOR\Google Drive\Maua\Aplicada2-Pic\labintegrado2014\Firmware\controlador PI\main.c
                     a127   0x0020fe    program     extern C:\Users\JUNIOR\Google Drive\Maua\Aplicada2-Pic\labintegrado2014\Firmware\controlador PI\main.c
                     a128   0x002100    program     extern C:\Users\JUNIOR\Google Drive\Maua\Aplicada2-Pic\labintegrado2014\Firmware\controlador PI\main.c
                     a129   0x002102    program     extern C:\Users\JUNIOR\Google Drive\Maua\Aplicada2-Pic\labintegrado2014\Firmware\controlador PI\main.c
                      a13   0x00201a    program     extern C:\Users\JUNIOR\Google Drive\Maua\Aplicada2-Pic\labintegrado2014\Firmware\controlador PI\main.c
                     a130   0x002104    program     extern C:\Users\JUNIOR\Google Drive\Maua\Aplicada2-Pic\labintegrado2014\Firmware\controlador PI\main.c
                     a131   0x002106    program     extern C:\Users\JUNIOR\Google Drive\Maua\Aplicada2-Pic\labintegrado2014\Firmware\controlador PI\main.c
                     a132   0x002108    program     extern C:\Users\JUNIOR\Google Drive\Maua\Aplicada2-Pic\labintegrado2014\Firmware\controlador PI\main.c
                     a133   0x00210a    program     extern C:\Users\JUNIOR\Google Drive\Maua\Aplicada2-Pic\labintegrado2014\Firmware\controlador PI\main.c
                     a134   0x00210c    program     extern C:\Users\JUNIOR\Google Drive\Maua\Aplicada2-Pic\labintegrado2014\Firmware\controlador PI\main.c
                     a135   0x00210e    program     extern C:\Users\JUNIOR\Google Drive\Maua\Aplicada2-Pic\labintegrado2014\Firmware\controlador PI\main.c
                     a136   0x002110    program     extern C:\Users\JUNIOR\Google Drive\Maua\Aplicada2-Pic\labintegrado2014\Firmware\controlador PI\main.c
                     a137   0x002112    program     extern C:\Users\JUNIOR\Google Drive\Maua\Aplicada2-Pic\labintegrado2014\Firmware\controlador PI\main.c
                     a138   0x002114    program     extern C:\Users\JUNIOR\Google Drive\Maua\Aplicada2-Pic\labintegrado2014\Firmware\controlador PI\main.c
                     a139   0x002116    program     extern C:\Users\JUNIOR\Google Drive\Maua\Aplicada2-Pic\labintegrado2014\Firmware\controlador PI\main.c
                      a14   0x00201c    program     extern C:\Users\JUNIOR\Google Drive\Maua\Aplicada2-Pic\labintegrado2014\Firmware\controlador PI\main.c
                     a140   0x002118    program     extern C:\Users\JUNIOR\Google Drive\Maua\Aplicada2-Pic\labintegrado2014\Firmware\controlador PI\main.c
                     a141   0x00211a    program     extern C:\Users\JUNIOR\Google Drive\Maua\Aplicada2-Pic\labintegrado2014\Firmware\controlador PI\main.c
                     a142   0x00211c    program     extern C:\Users\JUNIOR\Google Drive\Maua\Aplicada2-Pic\labintegrado2014\Firmware\controlador PI\main.c
                     a143   0x00211e    program     extern C:\Users\JUNIOR\Google Drive\Maua\Aplicada2-Pic\labintegrado2014\Firmware\controlador PI\main.c
                     a144   0x002120    program     extern C:\Users\JUNIOR\Google Drive\Maua\Aplicada2-Pic\labintegrado2014\Firmware\controlador PI\main.c
                     a145   0x002122    program     extern C:\Users\JUNIOR\Google Drive\Maua\Aplicada2-Pic\labintegrado2014\Firmware\controlador PI\main.c
                     a146   0x002124    program     extern C:\Users\JUNIOR\Google Drive\Maua\Aplicada2-Pic\labintegrado2014\Firmware\controlador PI\main.c
                     a147   0x002126    program     extern C:\Users\JUNIOR\Google Drive\Maua\Aplicada2-Pic\labintegrado2014\Firmware\controlador PI\main.c
                     a148   0x002128    program     extern C:\Users\JUNIOR\Google Drive\Maua\Aplicada2-Pic\labintegrado2014\Firmware\controlador PI\main.c
                     a149   0x00212a    program     extern C:\Users\JUNIOR\Google Drive\Maua\Aplicada2-Pic\labintegrado2014\Firmware\controlador PI\main.c
                      a15   0x00201e    program     extern C:\Users\JUNIOR\Google Drive\Maua\Aplicada2-Pic\labintegrado2014\Firmware\controlador PI\main.c
                     a150   0x00212c    program     extern C:\Users\JUNIOR\Google Drive\Maua\Aplicada2-Pic\labintegrado2014\Firmware\controlador PI\main.c
                     a151   0x00212e    program     extern C:\Users\JUNIOR\Google Drive\Maua\Aplicada2-Pic\labintegrado2014\Firmware\controlador PI\main.c
                     a152   0x002130    program     extern C:\Users\JUNIOR\Google Drive\Maua\Aplicada2-Pic\labintegrado2014\Firmware\controlador PI\main.c
                     a153   0x002132    program     extern C:\Users\JUNIOR\Google Drive\Maua\Aplicada2-Pic\labintegrado2014\Firmware\controlador PI\main.c
                     a154   0x002134    program     extern C:\Users\JUNIOR\Google Drive\Maua\Aplicada2-Pic\labintegrado2014\Firmware\controlador PI\main.c
                     a155   0x002136    program     extern C:\Users\JUNIOR\Google Drive\Maua\Aplicada2-Pic\labintegrado2014\Firmware\controlador PI\main.c
                     a156   0x002138    program     extern C:\Users\JUNIOR\Google Drive\Maua\Aplicada2-Pic\labintegrado2014\Firmware\controlador PI\main.c
                     a157   0x00213a    program     extern C:\Users\JUNIOR\Google Drive\Maua\Aplicada2-Pic\labintegrado2014\Firmware\controlador PI\main.c
                     a158   0x00213c    program     extern C:\Users\JUNIOR\Google Drive\Maua\Aplicada2-Pic\labintegrado2014\Firmware\controlador PI\main.c
                     a159   0x00213e    program     extern C:\Users\JUNIOR\Google Drive\Maua\Aplicada2-Pic\labintegrado2014\Firmware\controlador PI\main.c
                      a16   0x002020    program     extern C:\Users\JUNIOR\Google Drive\Maua\Aplicada2-Pic\labintegrado2014\Firmware\controlador PI\main.c
                     a160   0x002140    program     extern C:\Users\JUNIOR\Google Drive\Maua\Aplicada2-Pic\labintegrado2014\Firmware\controlador PI\main.c
                     a161   0x002142    program     extern C:\Users\JUNIOR\Google Drive\Maua\Aplicada2-Pic\labintegrado2014\Firmware\controlador PI\main.c
                     a162   0x002144    program     extern C:\Users\JUNIOR\Google Drive\Maua\Aplicada2-Pic\labintegrado2014\Firmware\controlador PI\main.c
                     a163   0x002146    program     extern C:\Users\JUNIOR\Google Drive\Maua\Aplicada2-Pic\labintegrado2014\Firmware\controlador PI\main.c
                     a164   0x002148    program     extern C:\Users\JUNIOR\Google Drive\Maua\Aplicada2-Pic\labintegrado2014\Firmware\controlador PI\main.c
                     a165   0x00214a    program     extern C:\Users\JUNIOR\Google Drive\Maua\Aplicada2-Pic\labintegrado2014\Firmware\controlador PI\main.c
                     a166   0x00214c    program     extern C:\Users\JUNIOR\Google Drive\Maua\Aplicada2-Pic\labintegrado2014\Firmware\controlador PI\main.c
                     a167   0x00214e    program     extern C:\Users\JUNIOR\Google Drive\Maua\Aplicada2-Pic\labintegrado2014\Firmware\controlador PI\main.c
                     a168   0x002150    program     extern C:\Users\JUNIOR\Google Drive\Maua\Aplicada2-Pic\labintegrado2014\Firmware\controlador PI\main.c
                     a169   0x002152    program     extern C:\Users\JUNIOR\Google Drive\Maua\Aplicada2-Pic\labintegrado2014\Firmware\controlador PI\main.c
                      a17   0x002022    program     extern C:\Users\JUNIOR\Google Drive\Maua\Aplicada2-Pic\labintegrado2014\Firmware\controlador PI\main.c
                     a170   0x002154    program     extern C:\Users\JUNIOR\Google Drive\Maua\Aplicada2-Pic\labintegrado2014\Firmware\controlador PI\main.c
                     a171   0x002156    program     extern C:\Users\JUNIOR\Google Drive\Maua\Aplicada2-Pic\labintegrado2014\Firmware\controlador PI\main.c
                     a172   0x002158    program     extern C:\Users\JUNIOR\Google Drive\Maua\Aplicada2-Pic\labintegrado2014\Firmware\controlador PI\main.c
                     a173   0x00215a    program     extern C:\Users\JUNIOR\Google Drive\Maua\Aplicada2-Pic\labintegrado2014\Firmware\controlador PI\main.c
                     a174   0x00215c    program     extern C:\Users\JUNIOR\Google Drive\Maua\Aplicada2-Pic\labintegrado2014\Firmware\controlador PI\main.c
                     a175   0x00215e    program     extern C:\Users\JUNIOR\Google Drive\Maua\Aplicada2-Pic\labintegrado2014\Firmware\controlador PI\main.c
                     a176   0x002160    program     extern C:\Users\JUNIOR\Google Drive\Maua\Aplicada2-Pic\labintegrado2014\Firmware\controlador PI\main.c
                     a177   0x002162    program     extern C:\Users\JUNIOR\Google Drive\Maua\Aplicada2-Pic\labintegrado2014\Firmware\controlador PI\main.c
                     a178   0x002164    program     extern C:\Users\JUNIOR\Google Drive\Maua\Aplicada2-Pic\labintegrado2014\Firmware\controlador PI\main.c
                     a179   0x002166    program     extern C:\Users\JUNIOR\Google Drive\Maua\Aplicada2-Pic\labintegrado2014\Firmware\controlador PI\main.c
                      a18   0x002024    program     extern C:\Users\JUNIOR\Google Drive\Maua\Aplicada2-Pic\labintegrado2014\Firmware\controlador PI\main.c
                     a180   0x002168    program     extern C:\Users\JUNIOR\Google Drive\Maua\Aplicada2-Pic\labintegrado2014\Firmware\controlador PI\main.c
                     a181   0x00216a    program     extern C:\Users\JUNIOR\Google Drive\Maua\Aplicada2-Pic\labintegrado2014\Firmware\controlador PI\main.c
                     a182   0x00216c    program     extern C:\Users\JUNIOR\Google Drive\Maua\Aplicada2-Pic\labintegrado2014\Firmware\controlador PI\main.c
                     a183   0x00216e    program     extern C:\Users\JUNIOR\Google Drive\Maua\Aplicada2-Pic\labintegrado2014\Firmware\controlador PI\main.c
                     a184   0x002170    program     extern C:\Users\JUNIOR\Google Drive\Maua\Aplicada2-Pic\labintegrado2014\Firmware\controlador PI\main.c
                     a185   0x002172    program     extern C:\Users\JUNIOR\Google Drive\Maua\Aplicada2-Pic\labintegrado2014\Firmware\controlador PI\main.c
                     a186   0x002174    program     extern C:\Users\JUNIOR\Google Drive\Maua\Aplicada2-Pic\labintegrado2014\Firmware\controlador PI\main.c
                     a187   0x002176    program     extern C:\Users\JUNIOR\Google Drive\Maua\Aplicada2-Pic\labintegrado2014\Firmware\controlador PI\main.c
                     a188   0x002178    program     extern C:\Users\JUNIOR\Google Drive\Maua\Aplicada2-Pic\labintegrado2014\Firmware\controlador PI\main.c
                     a189   0x00217a    program     extern C:\Users\JUNIOR\Google Drive\Maua\Aplicada2-Pic\labintegrado2014\Firmware\controlador PI\main.c
                      a19   0x002026    program     extern C:\Users\JUNIOR\Google Drive\Maua\Aplicada2-Pic\labintegrado2014\Firmware\controlador PI\main.c
                     a190   0x00217c    program     extern C:\Users\JUNIOR\Google Drive\Maua\Aplicada2-Pic\labintegrado2014\Firmware\controlador PI\main.c
                     a191   0x00217e    program     extern C:\Users\JUNIOR\Google Drive\Maua\Aplicada2-Pic\labintegrado2014\Firmware\controlador PI\main.c
                     a192   0x002180    program     extern C:\Users\JUNIOR\Google Drive\Maua\Aplicada2-Pic\labintegrado2014\Firmware\controlador PI\main.c
                     a193   0x002182    program     extern C:\Users\JUNIOR\Google Drive\Maua\Aplicada2-Pic\labintegrado2014\Firmware\controlador PI\main.c
                     a194   0x002184    program     extern C:\Users\JUNIOR\Google Drive\Maua\Aplicada2-Pic\labintegrado2014\Firmware\controlador PI\main.c
                     a195   0x002186    program     extern C:\Users\JUNIOR\Google Drive\Maua\Aplicada2-Pic\labintegrado2014\Firmware\controlador PI\main.c
                     a196   0x002188    program     extern C:\Users\JUNIOR\Google Drive\Maua\Aplicada2-Pic\labintegrado2014\Firmware\controlador PI\main.c
                     a197   0x00218a    program     extern C:\Users\JUNIOR\Google Drive\Maua\Aplicada2-Pic\labintegrado2014\Firmware\controlador PI\main.c
                     a198   0x00218c    program     extern C:\Users\JUNIOR\Google Drive\Maua\Aplicada2-Pic\labintegrado2014\Firmware\controlador PI\main.c
                     a199   0x00218e    program     extern C:\Users\JUNIOR\Google Drive\Maua\Aplicada2-Pic\labintegrado2014\Firmware\controlador PI\main.c
                       a2   0x002004    program     extern C:\Users\JUNIOR\Google Drive\Maua\Aplicada2-Pic\labintegrado2014\Firmware\controlador PI\main.c
                      a20   0x002028    program     extern C:\Users\JUNIOR\Google Drive\Maua\Aplicada2-Pic\labintegrado2014\Firmware\controlador PI\main.c
                     a200   0x002190    program     extern C:\Users\JUNIOR\Google Drive\Maua\Aplicada2-Pic\labintegrado2014\Firmware\controlador PI\main.c
                     a201   0x002192    program     extern C:\Users\JUNIOR\Google Drive\Maua\Aplicada2-Pic\labintegrado2014\Firmware\controlador PI\main.c
                     a202   0x002194    program     extern C:\Users\JUNIOR\Google Drive\Maua\Aplicada2-Pic\labintegrado2014\Firmware\controlador PI\main.c
                     a203   0x002196    program     extern C:\Users\JUNIOR\Google Drive\Maua\Aplicada2-Pic\labintegrado2014\Firmware\controlador PI\main.c
                     a204   0x002198    program     extern C:\Users\JUNIOR\Google Drive\Maua\Aplicada2-Pic\labintegrado2014\Firmware\controlador PI\main.c
                     a205   0x00219a    program     extern C:\Users\JUNIOR\Google Drive\Maua\Aplicada2-Pic\labintegrado2014\Firmware\controlador PI\main.c
                     a206   0x00219c    program     extern C:\Users\JUNIOR\Google Drive\Maua\Aplicada2-Pic\labintegrado2014\Firmware\controlador PI\main.c
                     a207   0x00219e    program     extern C:\Users\JUNIOR\Google Drive\Maua\Aplicada2-Pic\labintegrado2014\Firmware\controlador PI\main.c
                     a208   0x0021a0    program     extern C:\Users\JUNIOR\Google Drive\Maua\Aplicada2-Pic\labintegrado2014\Firmware\controlador PI\main.c
                     a209   0x0021a2    program     extern C:\Users\JUNIOR\Google Drive\Maua\Aplicada2-Pic\labintegrado2014\Firmware\controlador PI\main.c
                      a21   0x00202a    program     extern C:\Users\JUNIOR\Google Drive\Maua\Aplicada2-Pic\labintegrado2014\Firmware\controlador PI\main.c
                     a210   0x0021a4    program     extern C:\Users\JUNIOR\Google Drive\Maua\Aplicada2-Pic\labintegrado2014\Firmware\controlador PI\main.c
                     a211   0x0021a6    program     extern C:\Users\JUNIOR\Google Drive\Maua\Aplicada2-Pic\labintegrado2014\Firmware\controlador PI\main.c
                     a212   0x0021a8    program     extern C:\Users\JUNIOR\Google Drive\Maua\Aplicada2-Pic\labintegrado2014\Firmware\controlador PI\main.c
                     a213   0x0021aa    program     extern C:\Users\JUNIOR\Google Drive\Maua\Aplicada2-Pic\labintegrado2014\Firmware\controlador PI\main.c
                     a214   0x0021ac    program     extern C:\Users\JUNIOR\Google Drive\Maua\Aplicada2-Pic\labintegrado2014\Firmware\controlador PI\main.c
                     a215   0x0021ae    program     extern C:\Users\JUNIOR\Google Drive\Maua\Aplicada2-Pic\labintegrado2014\Firmware\controlador PI\main.c
                     a216   0x0021b0    program     extern C:\Users\JUNIOR\Google Drive\Maua\Aplicada2-Pic\labintegrado2014\Firmware\controlador PI\main.c
                     a217   0x0021b2    program     extern C:\Users\JUNIOR\Google Drive\Maua\Aplicada2-Pic\labintegrado2014\Firmware\controlador PI\main.c
                     a218   0x0021b4    program     extern C:\Users\JUNIOR\Google Drive\Maua\Aplicada2-Pic\labintegrado2014\Firmware\controlador PI\main.c
                     a219   0x0021b6    program     extern C:\Users\JUNIOR\Google Drive\Maua\Aplicada2-Pic\labintegrado2014\Firmware\controlador PI\main.c
                      a22   0x00202c    program     extern C:\Users\JUNIOR\Google Drive\Maua\Aplicada2-Pic\labintegrado2014\Firmware\controlador PI\main.c
                     a220   0x0021b8    program     extern C:\Users\JUNIOR\Google Drive\Maua\Aplicada2-Pic\labintegrado2014\Firmware\controlador PI\main.c
                     a221   0x0021ba    program     extern C:\Users\JUNIOR\Google Drive\Maua\Aplicada2-Pic\labintegrado2014\Firmware\controlador PI\main.c
                     a222   0x0021bc    program     extern C:\Users\JUNIOR\Google Drive\Maua\Aplicada2-Pic\labintegrado2014\Firmware\controlador PI\main.c
                     a223   0x0021be    program     extern C:\Users\JUNIOR\Google Drive\Maua\Aplicada2-Pic\labintegrado2014\Firmware\controlador PI\main.c
                     a224   0x0021c0    program     extern C:\Users\JUNIOR\Google Drive\Maua\Aplicada2-Pic\labintegrado2014\Firmware\controlador PI\main.c
                     a225   0x0021c2    program     extern C:\Users\JUNIOR\Google Drive\Maua\Aplicada2-Pic\labintegrado2014\Firmware\controlador PI\main.c
                     a226   0x0021c4    program     extern C:\Users\JUNIOR\Google Drive\Maua\Aplicada2-Pic\labintegrado2014\Firmware\controlador PI\main.c
                     a227   0x0021c6    program     extern C:\Users\JUNIOR\Google Drive\Maua\Aplicada2-Pic\labintegrado2014\Firmware\controlador PI\main.c
                     a228   0x0021c8    program     extern C:\Users\JUNIOR\Google Drive\Maua\Aplicada2-Pic\labintegrado2014\Firmware\controlador PI\main.c
                     a229   0x0021ca    program     extern C:\Users\JUNIOR\Google Drive\Maua\Aplicada2-Pic\labintegrado2014\Firmware\controlador PI\main.c
                      a23   0x00202e    program     extern C:\Users\JUNIOR\Google Drive\Maua\Aplicada2-Pic\labintegrado2014\Firmware\controlador PI\main.c
                     a230   0x0021cc    program     extern C:\Users\JUNIOR\Google Drive\Maua\Aplicada2-Pic\labintegrado2014\Firmware\controlador PI\main.c
                     a231   0x0021ce    program     extern C:\Users\JUNIOR\Google Drive\Maua\Aplicada2-Pic\labintegrado2014\Firmware\controlador PI\main.c
                     a232   0x0021d0    program     extern C:\Users\JUNIOR\Google Drive\Maua\Aplicada2-Pic\labintegrado2014\Firmware\controlador PI\main.c
                     a233   0x0021d2    program     extern C:\Users\JUNIOR\Google Drive\Maua\Aplicada2-Pic\labintegrado2014\Firmware\controlador PI\main.c
                     a234   0x0021d4    program     extern C:\Users\JUNIOR\Google Drive\Maua\Aplicada2-Pic\labintegrado2014\Firmware\controlador PI\main.c
                     a235   0x0021d6    program     extern C:\Users\JUNIOR\Google Drive\Maua\Aplicada2-Pic\labintegrado2014\Firmware\controlador PI\main.c
                     a236   0x0021d8    program     extern C:\Users\JUNIOR\Google Drive\Maua\Aplicada2-Pic\labintegrado2014\Firmware\controlador PI\main.c
                     a237   0x0021da    program     extern C:\Users\JUNIOR\Google Drive\Maua\Aplicada2-Pic\labintegrado2014\Firmware\controlador PI\main.c
                     a238   0x0021dc    program     extern C:\Users\JUNIOR\Google Drive\Maua\Aplicada2-Pic\labintegrado2014\Firmware\controlador PI\main.c
                     a239   0x0021de    program     extern C:\Users\JUNIOR\Google Drive\Maua\Aplicada2-Pic\labintegrado2014\Firmware\controlador PI\main.c
                      a24   0x002030    program     extern C:\Users\JUNIOR\Google Drive\Maua\Aplicada2-Pic\labintegrado2014\Firmware\controlador PI\main.c
                     a240   0x0021e0    program     extern C:\Users\JUNIOR\Google Drive\Maua\Aplicada2-Pic\labintegrado2014\Firmware\controlador PI\main.c
                     a241   0x0021e2    program     extern C:\Users\JUNIOR\Google Drive\Maua\Aplicada2-Pic\labintegrado2014\Firmware\controlador PI\main.c
                     a242   0x0021e4    program     extern C:\Users\JUNIOR\Google Drive\Maua\Aplicada2-Pic\labintegrado2014\Firmware\controlador PI\main.c
                     a243   0x0021e6    program     extern C:\Users\JUNIOR\Google Drive\Maua\Aplicada2-Pic\labintegrado2014\Firmware\controlador PI\main.c
                     a244   0x0021e8    program     extern C:\Users\JUNIOR\Google Drive\Maua\Aplicada2-Pic\labintegrado2014\Firmware\controlador PI\main.c
                     a245   0x0021ea    program     extern C:\Users\JUNIOR\Google Drive\Maua\Aplicada2-Pic\labintegrado2014\Firmware\controlador PI\main.c
                     a246   0x0021ec    program     extern C:\Users\JUNIOR\Google Drive\Maua\Aplicada2-Pic\labintegrado2014\Firmware\controlador PI\main.c
                     a247   0x0021ee    program     extern C:\Users\JUNIOR\Google Drive\Maua\Aplicada2-Pic\labintegrado2014\Firmware\controlador PI\main.c
                     a248   0x0021f0    program     extern C:\Users\JUNIOR\Google Drive\Maua\Aplicada2-Pic\labintegrado2014\Firmware\controlador PI\main.c
                     a249   0x0021f2    program     extern C:\Users\JUNIOR\Google Drive\Maua\Aplicada2-Pic\labintegrado2014\Firmware\controlador PI\main.c
                      a25   0x002032    program     extern C:\Users\JUNIOR\Google Drive\Maua\Aplicada2-Pic\labintegrado2014\Firmware\controlador PI\main.c
                     a250   0x0021f4    program     extern C:\Users\JUNIOR\Google Drive\Maua\Aplicada2-Pic\labintegrado2014\Firmware\controlador PI\main.c
                     a251   0x0021f6    program     extern C:\Users\JUNIOR\Google Drive\Maua\Aplicada2-Pic\labintegrado2014\Firmware\controlador PI\main.c
                     a252   0x0021f8    program     extern C:\Users\JUNIOR\Google Drive\Maua\Aplicada2-Pic\labintegrado2014\Firmware\controlador PI\main.c
                     a253   0x0021fa    program     extern C:\Users\JUNIOR\Google Drive\Maua\Aplicada2-Pic\labintegrado2014\Firmware\controlador PI\main.c
                     a254   0x0021fc    program     extern C:\Users\JUNIOR\Google Drive\Maua\Aplicada2-Pic\labintegrado2014\Firmware\controlador PI\main.c
                     a255   0x0021fe    program     extern C:\Users\JUNIOR\Google Drive\Maua\Aplicada2-Pic\labintegrado2014\Firmware\controlador PI\main.c
                     a256   0x002200    program     extern C:\Users\JUNIOR\Google Drive\Maua\Aplicada2-Pic\labintegrado2014\Firmware\controlador PI\main.c
                     a257   0x002202    program     extern C:\Users\JUNIOR\Google Drive\Maua\Aplicada2-Pic\labintegrado2014\Firmware\controlador PI\main.c
                     a258   0x002204    program     extern C:\Users\JUNIOR\Google Drive\Maua\Aplicada2-Pic\labintegrado2014\Firmware\controlador PI\main.c
                     a259   0x002206    program     extern C:\Users\JUNIOR\Google Drive\Maua\Aplicada2-Pic\labintegrado2014\Firmware\controlador PI\main.c
                      a26   0x002034    program     extern C:\Users\JUNIOR\Google Drive\Maua\Aplicada2-Pic\labintegrado2014\Firmware\controlador PI\main.c
                     a260   0x002208    program     extern C:\Users\JUNIOR\Google Drive\Maua\Aplicada2-Pic\labintegrado2014\Firmware\controlador PI\main.c
                     a261   0x00220a    program     extern C:\Users\JUNIOR\Google Drive\Maua\Aplicada2-Pic\labintegrado2014\Firmware\controlador PI\main.c
                     a262   0x00220c    program     extern C:\Users\JUNIOR\Google Drive\Maua\Aplicada2-Pic\labintegrado2014\Firmware\controlador PI\main.c
                     a263   0x00220e    program     extern C:\Users\JUNIOR\Google Drive\Maua\Aplicada2-Pic\labintegrado2014\Firmware\controlador PI\main.c
                     a264   0x002210    program     extern C:\Users\JUNIOR\Google Drive\Maua\Aplicada2-Pic\labintegrado2014\Firmware\controlador PI\main.c
                     a265   0x002212    program     extern C:\Users\JUNIOR\Google Drive\Maua\Aplicada2-Pic\labintegrado2014\Firmware\controlador PI\main.c
                     a266   0x002214    program     extern C:\Users\JUNIOR\Google Drive\Maua\Aplicada2-Pic\labintegrado2014\Firmware\controlador PI\main.c
                     a267   0x002216    program     extern C:\Users\JUNIOR\Google Drive\Maua\Aplicada2-Pic\labintegrado2014\Firmware\controlador PI\main.c
                     a268   0x002218    program     extern C:\Users\JUNIOR\Google Drive\Maua\Aplicada2-Pic\labintegrado2014\Firmware\controlador PI\main.c
                     a269   0x00221a    program     extern C:\Users\JUNIOR\Google Drive\Maua\Aplicada2-Pic\labintegrado2014\Firmware\controlador PI\main.c
                      a27   0x002036    program     extern C:\Users\JUNIOR\Google Drive\Maua\Aplicada2-Pic\labintegrado2014\Firmware\controlador PI\main.c
                     a270   0x00221c    program     extern C:\Users\JUNIOR\Google Drive\Maua\Aplicada2-Pic\labintegrado2014\Firmware\controlador PI\main.c
                     a271   0x00221e    program     extern C:\Users\JUNIOR\Google Drive\Maua\Aplicada2-Pic\labintegrado2014\Firmware\controlador PI\main.c
                     a272   0x002220    program     extern C:\Users\JUNIOR\Google Drive\Maua\Aplicada2-Pic\labintegrado2014\Firmware\controlador PI\main.c
                     a273   0x002222    program     extern C:\Users\JUNIOR\Google Drive\Maua\Aplicada2-Pic\labintegrado2014\Firmware\controlador PI\main.c
                     a274   0x002224    program     extern C:\Users\JUNIOR\Google Drive\Maua\Aplicada2-Pic\labintegrado2014\Firmware\controlador PI\main.c
                     a275   0x002226    program     extern C:\Users\JUNIOR\Google Drive\Maua\Aplicada2-Pic\labintegrado2014\Firmware\controlador PI\main.c
                     a276   0x002228    program     extern C:\Users\JUNIOR\Google Drive\Maua\Aplicada2-Pic\labintegrado2014\Firmware\controlador PI\main.c
                     a277   0x00222a    program     extern C:\Users\JUNIOR\Google Drive\Maua\Aplicada2-Pic\labintegrado2014\Firmware\controlador PI\main.c
                     a278   0x00222c    program     extern C:\Users\JUNIOR\Google Drive\Maua\Aplicada2-Pic\labintegrado2014\Firmware\controlador PI\main.c
                     a279   0x00222e    program     extern C:\Users\JUNIOR\Google Drive\Maua\Aplicada2-Pic\labintegrado2014\Firmware\controlador PI\main.c
                      a28   0x002038    program     extern C:\Users\JUNIOR\Google Drive\Maua\Aplicada2-Pic\labintegrado2014\Firmware\controlador PI\main.c
                     a280   0x002230    program     extern C:\Users\JUNIOR\Google Drive\Maua\Aplicada2-Pic\labintegrado2014\Firmware\controlador PI\main.c
                     a281   0x002232    program     extern C:\Users\JUNIOR\Google Drive\Maua\Aplicada2-Pic\labintegrado2014\Firmware\controlador PI\main.c
                     a282   0x002234    program     extern C:\Users\JUNIOR\Google Drive\Maua\Aplicada2-Pic\labintegrado2014\Firmware\controlador PI\main.c
                     a283   0x002236    program     extern C:\Users\JUNIOR\Google Drive\Maua\Aplicada2-Pic\labintegrado2014\Firmware\controlador PI\main.c
                     a284   0x002238    program     extern C:\Users\JUNIOR\Google Drive\Maua\Aplicada2-Pic\labintegrado2014\Firmware\controlador PI\main.c
                     a285   0x00223a    program     extern C:\Users\JUNIOR\Google Drive\Maua\Aplicada2-Pic\labintegrado2014\Firmware\controlador PI\main.c
                     a286   0x00223c    program     extern C:\Users\JUNIOR\Google Drive\Maua\Aplicada2-Pic\labintegrado2014\Firmware\controlador PI\main.c
                     a287   0x00223e    program     extern C:\Users\JUNIOR\Google Drive\Maua\Aplicada2-Pic\labintegrado2014\Firmware\controlador PI\main.c
                     a288   0x002240    program     extern C:\Users\JUNIOR\Google Drive\Maua\Aplicada2-Pic\labintegrado2014\Firmware\controlador PI\main.c
                     a289   0x002242    program     extern C:\Users\JUNIOR\Google Drive\Maua\Aplicada2-Pic\labintegrado2014\Firmware\controlador PI\main.c
                      a29   0x00203a    program     extern C:\Users\JUNIOR\Google Drive\Maua\Aplicada2-Pic\labintegrado2014\Firmware\controlador PI\main.c
                     a290   0x002244    program     extern C:\Users\JUNIOR\Google Drive\Maua\Aplicada2-Pic\labintegrado2014\Firmware\controlador PI\main.c
                     a291   0x002246    program     extern C:\Users\JUNIOR\Google Drive\Maua\Aplicada2-Pic\labintegrado2014\Firmware\controlador PI\main.c
                     a292   0x002248    program     extern C:\Users\JUNIOR\Google Drive\Maua\Aplicada2-Pic\labintegrado2014\Firmware\controlador PI\main.c
                     a293   0x00224a    program     extern C:\Users\JUNIOR\Google Drive\Maua\Aplicada2-Pic\labintegrado2014\Firmware\controlador PI\main.c
                     a294   0x00224c    program     extern C:\Users\JUNIOR\Google Drive\Maua\Aplicada2-Pic\labintegrado2014\Firmware\controlador PI\main.c
                     a295   0x00224e    program     extern C:\Users\JUNIOR\Google Drive\Maua\Aplicada2-Pic\labintegrado2014\Firmware\controlador PI\main.c
                     a296   0x002250    program     extern C:\Users\JUNIOR\Google Drive\Maua\Aplicada2-Pic\labintegrado2014\Firmware\controlador PI\main.c
                     a297   0x002252    program     extern C:\Users\JUNIOR\Google Drive\Maua\Aplicada2-Pic\labintegrado2014\Firmware\controlador PI\main.c
                     a298   0x002254    program     extern C:\Users\JUNIOR\Google Drive\Maua\Aplicada2-Pic\labintegrado2014\Firmware\controlador PI\main.c
                     a299   0x002256    program     extern C:\Users\JUNIOR\Google Drive\Maua\Aplicada2-Pic\labintegrado2014\Firmware\controlador PI\main.c
                       a3   0x002006    program     extern C:\Users\JUNIOR\Google Drive\Maua\Aplicada2-Pic\labintegrado2014\Firmware\controlador PI\main.c
                      a30   0x00203c    program     extern C:\Users\JUNIOR\Google Drive\Maua\Aplicada2-Pic\labintegrado2014\Firmware\controlador PI\main.c
                     a300   0x002258    program     extern C:\Users\JUNIOR\Google Drive\Maua\Aplicada2-Pic\labintegrado2014\Firmware\controlador PI\main.c
                     a301   0x00225a    program     extern C:\Users\JUNIOR\Google Drive\Maua\Aplicada2-Pic\labintegrado2014\Firmware\controlador PI\main.c
                     a302   0x00225c    program     extern C:\Users\JUNIOR\Google Drive\Maua\Aplicada2-Pic\labintegrado2014\Firmware\controlador PI\main.c
                     a303   0x00225e    program     extern C:\Users\JUNIOR\Google Drive\Maua\Aplicada2-Pic\labintegrado2014\Firmware\controlador PI\main.c
                     a304   0x002260    program     extern C:\Users\JUNIOR\Google Drive\Maua\Aplicada2-Pic\labintegrado2014\Firmware\controlador PI\main.c
                     a305   0x002262    program     extern C:\Users\JUNIOR\Google Drive\Maua\Aplicada2-Pic\labintegrado2014\Firmware\controlador PI\main.c
                     a306   0x002264    program     extern C:\Users\JUNIOR\Google Drive\Maua\Aplicada2-Pic\labintegrado2014\Firmware\controlador PI\main.c
                     a307   0x002266    program     extern C:\Users\JUNIOR\Google Drive\Maua\Aplicada2-Pic\labintegrado2014\Firmware\controlador PI\main.c
                     a308   0x002268    program     extern C:\Users\JUNIOR\Google Drive\Maua\Aplicada2-Pic\labintegrado2014\Firmware\controlador PI\main.c
                     a309   0x00226a    program     extern C:\Users\JUNIOR\Google Drive\Maua\Aplicada2-Pic\labintegrado2014\Firmware\controlador PI\main.c
                      a31   0x00203e    program     extern C:\Users\JUNIOR\Google Drive\Maua\Aplicada2-Pic\labintegrado2014\Firmware\controlador PI\main.c
                     a310   0x00226c    program     extern C:\Users\JUNIOR\Google Drive\Maua\Aplicada2-Pic\labintegrado2014\Firmware\controlador PI\main.c
                     a311   0x00226e    program     extern C:\Users\JUNIOR\Google Drive\Maua\Aplicada2-Pic\labintegrado2014\Firmware\controlador PI\main.c
                     a312   0x002270    program     extern C:\Users\JUNIOR\Google Drive\Maua\Aplicada2-Pic\labintegrado2014\Firmware\controlador PI\main.c
                     a313   0x002272    program     extern C:\Users\JUNIOR\Google Drive\Maua\Aplicada2-Pic\labintegrado2014\Firmware\controlador PI\main.c
                     a314   0x002274    program     extern C:\Users\JUNIOR\Google Drive\Maua\Aplicada2-Pic\labintegrado2014\Firmware\controlador PI\main.c
                     a315   0x002276    program     extern C:\Users\JUNIOR\Google Drive\Maua\Aplicada2-Pic\labintegrado2014\Firmware\controlador PI\main.c
                     a316   0x002278    program     extern C:\Users\JUNIOR\Google Drive\Maua\Aplicada2-Pic\labintegrado2014\Firmware\controlador PI\main.c
                     a317   0x00227a    program     extern C:\Users\JUNIOR\Google Drive\Maua\Aplicada2-Pic\labintegrado2014\Firmware\controlador PI\main.c
                     a318   0x00227c    program     extern C:\Users\JUNIOR\Google Drive\Maua\Aplicada2-Pic\labintegrado2014\Firmware\controlador PI\main.c
                     a319   0x00227e    program     extern C:\Users\JUNIOR\Google Drive\Maua\Aplicada2-Pic\labintegrado2014\Firmware\controlador PI\main.c
                      a32   0x002040    program     extern C:\Users\JUNIOR\Google Drive\Maua\Aplicada2-Pic\labintegrado2014\Firmware\controlador PI\main.c
                     a320   0x002280    program     extern C:\Users\JUNIOR\Google Drive\Maua\Aplicada2-Pic\labintegrado2014\Firmware\controlador PI\main.c
                     a321   0x002282    program     extern C:\Users\JUNIOR\Google Drive\Maua\Aplicada2-Pic\labintegrado2014\Firmware\controlador PI\main.c
                     a322   0x002284    program     extern C:\Users\JUNIOR\Google Drive\Maua\Aplicada2-Pic\labintegrado2014\Firmware\controlador PI\main.c
                     a323   0x002286    program     extern C:\Users\JUNIOR\Google Drive\Maua\Aplicada2-Pic\labintegrado2014\Firmware\controlador PI\main.c
                     a324   0x002288    program     extern C:\Users\JUNIOR\Google Drive\Maua\Aplicada2-Pic\labintegrado2014\Firmware\controlador PI\main.c
                     a325   0x00228a    program     extern C:\Users\JUNIOR\Google Drive\Maua\Aplicada2-Pic\labintegrado2014\Firmware\controlador PI\main.c
                     a326   0x00228c    program     extern C:\Users\JUNIOR\Google Drive\Maua\Aplicada2-Pic\labintegrado2014\Firmware\controlador PI\main.c
                     a327   0x00228e    program     extern C:\Users\JUNIOR\Google Drive\Maua\Aplicada2-Pic\labintegrado2014\Firmware\controlador PI\main.c
                     a328   0x002290    program     extern C:\Users\JUNIOR\Google Drive\Maua\Aplicada2-Pic\labintegrado2014\Firmware\controlador PI\main.c
                     a329   0x002292    program     extern C:\Users\JUNIOR\Google Drive\Maua\Aplicada2-Pic\labintegrado2014\Firmware\controlador PI\main.c
                      a33   0x002042    program     extern C:\Users\JUNIOR\Google Drive\Maua\Aplicada2-Pic\labintegrado2014\Firmware\controlador PI\main.c
                     a330   0x002294    program     extern C:\Users\JUNIOR\Google Drive\Maua\Aplicada2-Pic\labintegrado2014\Firmware\controlador PI\main.c
                     a331   0x002296    program     extern C:\Users\JUNIOR\Google Drive\Maua\Aplicada2-Pic\labintegrado2014\Firmware\controlador PI\main.c
                     a332   0x002298    program     extern C:\Users\JUNIOR\Google Drive\Maua\Aplicada2-Pic\labintegrado2014\Firmware\controlador PI\main.c
                     a333   0x00229a    program     extern C:\Users\JUNIOR\Google Drive\Maua\Aplicada2-Pic\labintegrado2014\Firmware\controlador PI\main.c
                     a334   0x00229c    program     extern C:\Users\JUNIOR\Google Drive\Maua\Aplicada2-Pic\labintegrado2014\Firmware\controlador PI\main.c
                     a335   0x00229e    program     extern C:\Users\JUNIOR\Google Drive\Maua\Aplicada2-Pic\labintegrado2014\Firmware\controlador PI\main.c
                     a336   0x0022a0    program     extern C:\Users\JUNIOR\Google Drive\Maua\Aplicada2-Pic\labintegrado2014\Firmware\controlador PI\main.c
                     a337   0x0022a2    program     extern C:\Users\JUNIOR\Google Drive\Maua\Aplicada2-Pic\labintegrado2014\Firmware\controlador PI\main.c
                     a338   0x0022a4    program     extern C:\Users\JUNIOR\Google Drive\Maua\Aplicada2-Pic\labintegrado2014\Firmware\controlador PI\main.c
                     a339   0x0022a6    program     extern C:\Users\JUNIOR\Google Drive\Maua\Aplicada2-Pic\labintegrado2014\Firmware\controlador PI\main.c
                      a34   0x002044    program     extern C:\Users\JUNIOR\Google Drive\Maua\Aplicada2-Pic\labintegrado2014\Firmware\controlador PI\main.c
                     a340   0x0022a8    program     extern C:\Users\JUNIOR\Google Drive\Maua\Aplicada2-Pic\labintegrado2014\Firmware\controlador PI\main.c
                     a341   0x0022aa    program     extern C:\Users\JUNIOR\Google Drive\Maua\Aplicada2-Pic\labintegrado2014\Firmware\controlador PI\main.c
                     a342   0x0022ac    program     extern C:\Users\JUNIOR\Google Drive\Maua\Aplicada2-Pic\labintegrado2014\Firmware\controlador PI\main.c
                     a343   0x0022ae    program     extern C:\Users\JUNIOR\Google Drive\Maua\Aplicada2-Pic\labintegrado2014\Firmware\controlador PI\main.c
                     a344   0x0022b0    program     extern C:\Users\JUNIOR\Google Drive\Maua\Aplicada2-Pic\labintegrado2014\Firmware\controlador PI\main.c
                     a345   0x0022b2    program     extern C:\Users\JUNIOR\Google Drive\Maua\Aplicada2-Pic\labintegrado2014\Firmware\controlador PI\main.c
                     a346   0x0022b4    program     extern C:\Users\JUNIOR\Google Drive\Maua\Aplicada2-Pic\labintegrado2014\Firmware\controlador PI\main.c
                     a347   0x0022b6    program     extern C:\Users\JUNIOR\Google Drive\Maua\Aplicada2-Pic\labintegrado2014\Firmware\controlador PI\main.c
                     a348   0x0022b8    program     extern C:\Users\JUNIOR\Google Drive\Maua\Aplicada2-Pic\labintegrado2014\Firmware\controlador PI\main.c
                     a349   0x0022ba    program     extern C:\Users\JUNIOR\Google Drive\Maua\Aplicada2-Pic\labintegrado2014\Firmware\controlador PI\main.c
                      a35   0x002046    program     extern C:\Users\JUNIOR\Google Drive\Maua\Aplicada2-Pic\labintegrado2014\Firmware\controlador PI\main.c
                     a350   0x0022bc    program     extern C:\Users\JUNIOR\Google Drive\Maua\Aplicada2-Pic\labintegrado2014\Firmware\controlador PI\main.c
                     a351   0x0022be    program     extern C:\Users\JUNIOR\Google Drive\Maua\Aplicada2-Pic\labintegrado2014\Firmware\controlador PI\main.c
                     a352   0x0022c0    program     extern C:\Users\JUNIOR\Google Drive\Maua\Aplicada2-Pic\labintegrado2014\Firmware\controlador PI\main.c
                     a353   0x0022c2    program     extern C:\Users\JUNIOR\Google Drive\Maua\Aplicada2-Pic\labintegrado2014\Firmware\controlador PI\main.c
                     a354   0x0022c4    program     extern C:\Users\JUNIOR\Google Drive\Maua\Aplicada2-Pic\labintegrado2014\Firmware\controlador PI\main.c
                     a355   0x0022c6    program     extern C:\Users\JUNIOR\Google Drive\Maua\Aplicada2-Pic\labintegrado2014\Firmware\controlador PI\main.c
                     a356   0x0022c8    program     extern C:\Users\JUNIOR\Google Drive\Maua\Aplicada2-Pic\labintegrado2014\Firmware\controlador PI\main.c
                     a357   0x0022ca    program     extern C:\Users\JUNIOR\Google Drive\Maua\Aplicada2-Pic\labintegrado2014\Firmware\controlador PI\main.c
                     a358   0x0022cc    program     extern C:\Users\JUNIOR\Google Drive\Maua\Aplicada2-Pic\labintegrado2014\Firmware\controlador PI\main.c
                     a359   0x0022ce    program     extern C:\Users\JUNIOR\Google Drive\Maua\Aplicada2-Pic\labintegrado2014\Firmware\controlador PI\main.c
                      a36   0x002048    program     extern C:\Users\JUNIOR\Google Drive\Maua\Aplicada2-Pic\labintegrado2014\Firmware\controlador PI\main.c
                     a360   0x0022d0    program     extern C:\Users\JUNIOR\Google Drive\Maua\Aplicada2-Pic\labintegrado2014\Firmware\controlador PI\main.c
                     a361   0x0022d2    program     extern C:\Users\JUNIOR\Google Drive\Maua\Aplicada2-Pic\labintegrado2014\Firmware\controlador PI\main.c
                     a362   0x0022d4    program     extern C:\Users\JUNIOR\Google Drive\Maua\Aplicada2-Pic\labintegrado2014\Firmware\controlador PI\main.c
                     a363   0x0022d6    program     extern C:\Users\JUNIOR\Google Drive\Maua\Aplicada2-Pic\labintegrado2014\Firmware\controlador PI\main.c
                     a364   0x0022d8    program     extern C:\Users\JUNIOR\Google Drive\Maua\Aplicada2-Pic\labintegrado2014\Firmware\controlador PI\main.c
                     a365   0x0022da    program     extern C:\Users\JUNIOR\Google Drive\Maua\Aplicada2-Pic\labintegrado2014\Firmware\controlador PI\main.c
                     a366   0x0022dc    program     extern C:\Users\JUNIOR\Google Drive\Maua\Aplicada2-Pic\labintegrado2014\Firmware\controlador PI\main.c
                     a367   0x0022de    program     extern C:\Users\JUNIOR\Google Drive\Maua\Aplicada2-Pic\labintegrado2014\Firmware\controlador PI\main.c
                     a368   0x0022e0    program     extern C:\Users\JUNIOR\Google Drive\Maua\Aplicada2-Pic\labintegrado2014\Firmware\controlador PI\main.c
                     a369   0x0022e2    program     extern C:\Users\JUNIOR\Google Drive\Maua\Aplicada2-Pic\labintegrado2014\Firmware\controlador PI\main.c
                      a37   0x00204a    program     extern C:\Users\JUNIOR\Google Drive\Maua\Aplicada2-Pic\labintegrado2014\Firmware\controlador PI\main.c
                     a370   0x0022e4    program     extern C:\Users\JUNIOR\Google Drive\Maua\Aplicada2-Pic\labintegrado2014\Firmware\controlador PI\main.c
                     a371   0x0022e6    program     extern C:\Users\JUNIOR\Google Drive\Maua\Aplicada2-Pic\labintegrado2014\Firmware\controlador PI\main.c
                     a372   0x0022e8    program     extern C:\Users\JUNIOR\Google Drive\Maua\Aplicada2-Pic\labintegrado2014\Firmware\controlador PI\main.c
                     a373   0x0022ea    program     extern C:\Users\JUNIOR\Google Drive\Maua\Aplicada2-Pic\labintegrado2014\Firmware\controlador PI\main.c
                     a374   0x0022ec    program     extern C:\Users\JUNIOR\Google Drive\Maua\Aplicada2-Pic\labintegrado2014\Firmware\controlador PI\main.c
                     a375   0x0022ee    program     extern C:\Users\JUNIOR\Google Drive\Maua\Aplicada2-Pic\labintegrado2014\Firmware\controlador PI\main.c
                     a376   0x0022f0    program     extern C:\Users\JUNIOR\Google Drive\Maua\Aplicada2-Pic\labintegrado2014\Firmware\controlador PI\main.c
                     a377   0x0022f2    program     extern C:\Users\JUNIOR\Google Drive\Maua\Aplicada2-Pic\labintegrado2014\Firmware\controlador PI\main.c
                     a378   0x0022f4    program     extern C:\Users\JUNIOR\Google Drive\Maua\Aplicada2-Pic\labintegrado2014\Firmware\controlador PI\main.c
                     a379   0x0022f6    program     extern C:\Users\JUNIOR\Google Drive\Maua\Aplicada2-Pic\labintegrado2014\Firmware\controlador PI\main.c
                      a38   0x00204c    program     extern C:\Users\JUNIOR\Google Drive\Maua\Aplicada2-Pic\labintegrado2014\Firmware\controlador PI\main.c
                     a380   0x0022f8    program     extern C:\Users\JUNIOR\Google Drive\Maua\Aplicada2-Pic\labintegrado2014\Firmware\controlador PI\main.c
                     a381   0x0022fa    program     extern C:\Users\JUNIOR\Google Drive\Maua\Aplicada2-Pic\labintegrado2014\Firmware\controlador PI\main.c
                     a382   0x0022fc    program     extern C:\Users\JUNIOR\Google Drive\Maua\Aplicada2-Pic\labintegrado2014\Firmware\controlador PI\main.c
                     a383   0x0022fe    program     extern C:\Users\JUNIOR\Google Drive\Maua\Aplicada2-Pic\labintegrado2014\Firmware\controlador PI\main.c
                     a384   0x002300    program     extern C:\Users\JUNIOR\Google Drive\Maua\Aplicada2-Pic\labintegrado2014\Firmware\controlador PI\main.c
                     a385   0x002302    program     extern C:\Users\JUNIOR\Google Drive\Maua\Aplicada2-Pic\labintegrado2014\Firmware\controlador PI\main.c
                     a386   0x002304    program     extern C:\Users\JUNIOR\Google Drive\Maua\Aplicada2-Pic\labintegrado2014\Firmware\controlador PI\main.c
                     a387   0x002306    program     extern C:\Users\JUNIOR\Google Drive\Maua\Aplicada2-Pic\labintegrado2014\Firmware\controlador PI\main.c
                     a388   0x002308    program     extern C:\Users\JUNIOR\Google Drive\Maua\Aplicada2-Pic\labintegrado2014\Firmware\controlador PI\main.c
                     a389   0x00230a    program     extern C:\Users\JUNIOR\Google Drive\Maua\Aplicada2-Pic\labintegrado2014\Firmware\controlador PI\main.c
                      a39   0x00204e    program     extern C:\Users\JUNIOR\Google Drive\Maua\Aplicada2-Pic\labintegrado2014\Firmware\controlador PI\main.c
                     a390   0x00230c    program     extern C:\Users\JUNIOR\Google Drive\Maua\Aplicada2-Pic\labintegrado2014\Firmware\controlador PI\main.c
                     a391   0x00230e    program     extern C:\Users\JUNIOR\Google Drive\Maua\Aplicada2-Pic\labintegrado2014\Firmware\controlador PI\main.c
                     a392   0x002310    program     extern C:\Users\JUNIOR\Google Drive\Maua\Aplicada2-Pic\labintegrado2014\Firmware\controlador PI\main.c
                     a393   0x002312    program     extern C:\Users\JUNIOR\Google Drive\Maua\Aplicada2-Pic\labintegrado2014\Firmware\controlador PI\main.c
                     a394   0x002314    program     extern C:\Users\JUNIOR\Google Drive\Maua\Aplicada2-Pic\labintegrado2014\Firmware\controlador PI\main.c
                     a395   0x002316    program     extern C:\Users\JUNIOR\Google Drive\Maua\Aplicada2-Pic\labintegrado2014\Firmware\controlador PI\main.c
                     a396   0x002318    program     extern C:\Users\JUNIOR\Google Drive\Maua\Aplicada2-Pic\labintegrado2014\Firmware\controlador PI\main.c
                     a397   0x00231a    program     extern C:\Users\JUNIOR\Google Drive\Maua\Aplicada2-Pic\labintegrado2014\Firmware\controlador PI\main.c
                     a398   0x00231c    program     extern C:\Users\JUNIOR\Google Drive\Maua\Aplicada2-Pic\labintegrado2014\Firmware\controlador PI\main.c
                     a399   0x00231e    program     extern C:\Users\JUNIOR\Google Drive\Maua\Aplicada2-Pic\labintegrado2014\Firmware\controlador PI\main.c
                       a4   0x002008    program     extern C:\Users\JUNIOR\Google Drive\Maua\Aplicada2-Pic\labintegrado2014\Firmware\controlador PI\main.c
                      a40   0x002050    program     extern C:\Users\JUNIOR\Google Drive\Maua\Aplicada2-Pic\labintegrado2014\Firmware\controlador PI\main.c
                     a400   0x002320    program     extern C:\Users\JUNIOR\Google Drive\Maua\Aplicada2-Pic\labintegrado2014\Firmware\controlador PI\main.c
                     a401   0x002322    program     extern C:\Users\JUNIOR\Google Drive\Maua\Aplicada2-Pic\labintegrado2014\Firmware\controlador PI\main.c
                     a402   0x002324    program     extern C:\Users\JUNIOR\Google Drive\Maua\Aplicada2-Pic\labintegrado2014\Firmware\controlador PI\main.c
                     a403   0x002326    program     extern C:\Users\JUNIOR\Google Drive\Maua\Aplicada2-Pic\labintegrado2014\Firmware\controlador PI\main.c
                     a404   0x002328    program     extern C:\Users\JUNIOR\Google Drive\Maua\Aplicada2-Pic\labintegrado2014\Firmware\controlador PI\main.c
                     a405   0x00232a    program     extern C:\Users\JUNIOR\Google Drive\Maua\Aplicada2-Pic\labintegrado2014\Firmware\controlador PI\main.c
                     a406   0x00232c    program     extern C:\Users\JUNIOR\Google Drive\Maua\Aplicada2-Pic\labintegrado2014\Firmware\controlador PI\main.c
                     a407   0x00232e    program     extern C:\Users\JUNIOR\Google Drive\Maua\Aplicada2-Pic\labintegrado2014\Firmware\controlador PI\main.c
                     a408   0x002330    program     extern C:\Users\JUNIOR\Google Drive\Maua\Aplicada2-Pic\labintegrado2014\Firmware\controlador PI\main.c
                     a409   0x002332    program     extern C:\Users\JUNIOR\Google Drive\Maua\Aplicada2-Pic\labintegrado2014\Firmware\controlador PI\main.c
                      a41   0x002052    program     extern C:\Users\JUNIOR\Google Drive\Maua\Aplicada2-Pic\labintegrado2014\Firmware\controlador PI\main.c
                     a410   0x002334    program     extern C:\Users\JUNIOR\Google Drive\Maua\Aplicada2-Pic\labintegrado2014\Firmware\controlador PI\main.c
                     a411   0x002336    program     extern C:\Users\JUNIOR\Google Drive\Maua\Aplicada2-Pic\labintegrado2014\Firmware\controlador PI\main.c
                     a412   0x002338    program     extern C:\Users\JUNIOR\Google Drive\Maua\Aplicada2-Pic\labintegrado2014\Firmware\controlador PI\main.c
                     a413   0x00233a    program     extern C:\Users\JUNIOR\Google Drive\Maua\Aplicada2-Pic\labintegrado2014\Firmware\controlador PI\main.c
                     a414   0x00233c    program     extern C:\Users\JUNIOR\Google Drive\Maua\Aplicada2-Pic\labintegrado2014\Firmware\controlador PI\main.c
                     a415   0x00233e    program     extern C:\Users\JUNIOR\Google Drive\Maua\Aplicada2-Pic\labintegrado2014\Firmware\controlador PI\main.c
                     a416   0x002340    program     extern C:\Users\JUNIOR\Google Drive\Maua\Aplicada2-Pic\labintegrado2014\Firmware\controlador PI\main.c
                     a417   0x002342    program     extern C:\Users\JUNIOR\Google Drive\Maua\Aplicada2-Pic\labintegrado2014\Firmware\controlador PI\main.c
                     a418   0x002344    program     extern C:\Users\JUNIOR\Google Drive\Maua\Aplicada2-Pic\labintegrado2014\Firmware\controlador PI\main.c
                     a419   0x002346    program     extern C:\Users\JUNIOR\Google Drive\Maua\Aplicada2-Pic\labintegrado2014\Firmware\controlador PI\main.c
                      a42   0x002054    program     extern C:\Users\JUNIOR\Google Drive\Maua\Aplicada2-Pic\labintegrado2014\Firmware\controlador PI\main.c
                     a420   0x002348    program     extern C:\Users\JUNIOR\Google Drive\Maua\Aplicada2-Pic\labintegrado2014\Firmware\controlador PI\main.c
                     a421   0x00234a    program     extern C:\Users\JUNIOR\Google Drive\Maua\Aplicada2-Pic\labintegrado2014\Firmware\controlador PI\main.c
                     a422   0x00234c    program     extern C:\Users\JUNIOR\Google Drive\Maua\Aplicada2-Pic\labintegrado2014\Firmware\controlador PI\main.c
                     a423   0x00234e    program     extern C:\Users\JUNIOR\Google Drive\Maua\Aplicada2-Pic\labintegrado2014\Firmware\controlador PI\main.c
                     a424   0x002350    program     extern C:\Users\JUNIOR\Google Drive\Maua\Aplicada2-Pic\labintegrado2014\Firmware\controlador PI\main.c
                     a425   0x002352    program     extern C:\Users\JUNIOR\Google Drive\Maua\Aplicada2-Pic\labintegrado2014\Firmware\controlador PI\main.c
                     a426   0x002354    program     extern C:\Users\JUNIOR\Google Drive\Maua\Aplicada2-Pic\labintegrado2014\Firmware\controlador PI\main.c
                     a427   0x002356    program     extern C:\Users\JUNIOR\Google Drive\Maua\Aplicada2-Pic\labintegrado2014\Firmware\controlador PI\main.c
                     a428   0x002358    program     extern C:\Users\JUNIOR\Google Drive\Maua\Aplicada2-Pic\labintegrado2014\Firmware\controlador PI\main.c
                     a429   0x00235a    program     extern C:\Users\JUNIOR\Google Drive\Maua\Aplicada2-Pic\labintegrado2014\Firmware\controlador PI\main.c
                      a43   0x002056    program     extern C:\Users\JUNIOR\Google Drive\Maua\Aplicada2-Pic\labintegrado2014\Firmware\controlador PI\main.c
                     a430   0x00235c    program     extern C:\Users\JUNIOR\Google Drive\Maua\Aplicada2-Pic\labintegrado2014\Firmware\controlador PI\main.c
                     a431   0x00235e    program     extern C:\Users\JUNIOR\Google Drive\Maua\Aplicada2-Pic\labintegrado2014\Firmware\controlador PI\main.c
                     a432   0x002360    program     extern C:\Users\JUNIOR\Google Drive\Maua\Aplicada2-Pic\labintegrado2014\Firmware\controlador PI\main.c
                     a433   0x002362    program     extern C:\Users\JUNIOR\Google Drive\Maua\Aplicada2-Pic\labintegrado2014\Firmware\controlador PI\main.c
                     a434   0x002364    program     extern C:\Users\JUNIOR\Google Drive\Maua\Aplicada2-Pic\labintegrado2014\Firmware\controlador PI\main.c
                     a435   0x002366    program     extern C:\Users\JUNIOR\Google Drive\Maua\Aplicada2-Pic\labintegrado2014\Firmware\controlador PI\main.c
                     a436   0x002368    program     extern C:\Users\JUNIOR\Google Drive\Maua\Aplicada2-Pic\labintegrado2014\Firmware\controlador PI\main.c
                     a437   0x00236a    program     extern C:\Users\JUNIOR\Google Drive\Maua\Aplicada2-Pic\labintegrado2014\Firmware\controlador PI\main.c
                     a438   0x00236c    program     extern C:\Users\JUNIOR\Google Drive\Maua\Aplicada2-Pic\labintegrado2014\Firmware\controlador PI\main.c
                     a439   0x00236e    program     extern C:\Users\JUNIOR\Google Drive\Maua\Aplicada2-Pic\labintegrado2014\Firmware\controlador PI\main.c
                      a44   0x002058    program     extern C:\Users\JUNIOR\Google Drive\Maua\Aplicada2-Pic\labintegrado2014\Firmware\controlador PI\main.c
                     a440   0x002370    program     extern C:\Users\JUNIOR\Google Drive\Maua\Aplicada2-Pic\labintegrado2014\Firmware\controlador PI\main.c
                     a441   0x002372    program     extern C:\Users\JUNIOR\Google Drive\Maua\Aplicada2-Pic\labintegrado2014\Firmware\controlador PI\main.c
                     a442   0x002374    program     extern C:\Users\JUNIOR\Google Drive\Maua\Aplicada2-Pic\labintegrado2014\Firmware\controlador PI\main.c
                     a443   0x002376    program     extern C:\Users\JUNIOR\Google Drive\Maua\Aplicada2-Pic\labintegrado2014\Firmware\controlador PI\main.c
                     a444   0x002378    program     extern C:\Users\JUNIOR\Google Drive\Maua\Aplicada2-Pic\labintegrado2014\Firmware\controlador PI\main.c
                     a445   0x00237a    program     extern C:\Users\JUNIOR\Google Drive\Maua\Aplicada2-Pic\labintegrado2014\Firmware\controlador PI\main.c
                     a446   0x00237c    program     extern C:\Users\JUNIOR\Google Drive\Maua\Aplicada2-Pic\labintegrado2014\Firmware\controlador PI\main.c
                     a447   0x00237e    program     extern C:\Users\JUNIOR\Google Drive\Maua\Aplicada2-Pic\labintegrado2014\Firmware\controlador PI\main.c
                     a448   0x002380    program     extern C:\Users\JUNIOR\Google Drive\Maua\Aplicada2-Pic\labintegrado2014\Firmware\controlador PI\main.c
                     a449   0x002382    program     extern C:\Users\JUNIOR\Google Drive\Maua\Aplicada2-Pic\labintegrado2014\Firmware\controlador PI\main.c
                      a45   0x00205a    program     extern C:\Users\JUNIOR\Google Drive\Maua\Aplicada2-Pic\labintegrado2014\Firmware\controlador PI\main.c
                     a450   0x002384    program     extern C:\Users\JUNIOR\Google Drive\Maua\Aplicada2-Pic\labintegrado2014\Firmware\controlador PI\main.c
                     a451   0x002386    program     extern C:\Users\JUNIOR\Google Drive\Maua\Aplicada2-Pic\labintegrado2014\Firmware\controlador PI\main.c
                     a452   0x002388    program     extern C:\Users\JUNIOR\Google Drive\Maua\Aplicada2-Pic\labintegrado2014\Firmware\controlador PI\main.c
                     a453   0x00238a    program     extern C:\Users\JUNIOR\Google Drive\Maua\Aplicada2-Pic\labintegrado2014\Firmware\controlador PI\main.c
                     a454   0x00238c    program     extern C:\Users\JUNIOR\Google Drive\Maua\Aplicada2-Pic\labintegrado2014\Firmware\controlador PI\main.c
                     a455   0x00238e    program     extern C:\Users\JUNIOR\Google Drive\Maua\Aplicada2-Pic\labintegrado2014\Firmware\controlador PI\main.c
                     a456   0x002390    program     extern C:\Users\JUNIOR\Google Drive\Maua\Aplicada2-Pic\labintegrado2014\Firmware\controlador PI\main.c
                     a457   0x002392    program     extern C:\Users\JUNIOR\Google Drive\Maua\Aplicada2-Pic\labintegrado2014\Firmware\controlador PI\main.c
                     a458   0x002394    program     extern C:\Users\JUNIOR\Google Drive\Maua\Aplicada2-Pic\labintegrado2014\Firmware\controlador PI\main.c
                     a459   0x002396    program     extern C:\Users\JUNIOR\Google Drive\Maua\Aplicada2-Pic\labintegrado2014\Firmware\controlador PI\main.c
                      a46   0x00205c    program     extern C:\Users\JUNIOR\Google Drive\Maua\Aplicada2-Pic\labintegrado2014\Firmware\controlador PI\main.c
                     a460   0x002398    program     extern C:\Users\JUNIOR\Google Drive\Maua\Aplicada2-Pic\labintegrado2014\Firmware\controlador PI\main.c
                     a461   0x00239a    program     extern C:\Users\JUNIOR\Google Drive\Maua\Aplicada2-Pic\labintegrado2014\Firmware\controlador PI\main.c
                     a462   0x00239c    program     extern C:\Users\JUNIOR\Google Drive\Maua\Aplicada2-Pic\labintegrado2014\Firmware\controlador PI\main.c
                     a463   0x00239e    program     extern C:\Users\JUNIOR\Google Drive\Maua\Aplicada2-Pic\labintegrado2014\Firmware\controlador PI\main.c
                     a464   0x0023a0    program     extern C:\Users\JUNIOR\Google Drive\Maua\Aplicada2-Pic\labintegrado2014\Firmware\controlador PI\main.c
                     a465   0x0023a2    program     extern C:\Users\JUNIOR\Google Drive\Maua\Aplicada2-Pic\labintegrado2014\Firmware\controlador PI\main.c
                     a466   0x0023a4    program     extern C:\Users\JUNIOR\Google Drive\Maua\Aplicada2-Pic\labintegrado2014\Firmware\controlador PI\main.c
                     a467   0x0023a6    program     extern C:\Users\JUNIOR\Google Drive\Maua\Aplicada2-Pic\labintegrado2014\Firmware\controlador PI\main.c
                     a468   0x0023a8    program     extern C:\Users\JUNIOR\Google Drive\Maua\Aplicada2-Pic\labintegrado2014\Firmware\controlador PI\main.c
                     a469   0x0023aa    program     extern C:\Users\JUNIOR\Google Drive\Maua\Aplicada2-Pic\labintegrado2014\Firmware\controlador PI\main.c
                      a47   0x00205e    program     extern C:\Users\JUNIOR\Google Drive\Maua\Aplicada2-Pic\labintegrado2014\Firmware\controlador PI\main.c
                     a470   0x0023ac    program     extern C:\Users\JUNIOR\Google Drive\Maua\Aplicada2-Pic\labintegrado2014\Firmware\controlador PI\main.c
                     a471   0x0023ae    program     extern C:\Users\JUNIOR\Google Drive\Maua\Aplicada2-Pic\labintegrado2014\Firmware\controlador PI\main.c
                     a472   0x0023b0    program     extern C:\Users\JUNIOR\Google Drive\Maua\Aplicada2-Pic\labintegrado2014\Firmware\controlador PI\main.c
                     a473   0x0023b2    program     extern C:\Users\JUNIOR\Google Drive\Maua\Aplicada2-Pic\labintegrado2014\Firmware\controlador PI\main.c
                     a474   0x0023b4    program     extern C:\Users\JUNIOR\Google Drive\Maua\Aplicada2-Pic\labintegrado2014\Firmware\controlador PI\main.c
                     a475   0x0023b6    program     extern C:\Users\JUNIOR\Google Drive\Maua\Aplicada2-Pic\labintegrado2014\Firmware\controlador PI\main.c
                     a476   0x0023b8    program     extern C:\Users\JUNIOR\Google Drive\Maua\Aplicada2-Pic\labintegrado2014\Firmware\controlador PI\main.c
                     a477   0x0023ba    program     extern C:\Users\JUNIOR\Google Drive\Maua\Aplicada2-Pic\labintegrado2014\Firmware\controlador PI\main.c
                     a478   0x0023bc    program     extern C:\Users\JUNIOR\Google Drive\Maua\Aplicada2-Pic\labintegrado2014\Firmware\controlador PI\main.c
                     a479   0x0023be    program     extern C:\Users\JUNIOR\Google Drive\Maua\Aplicada2-Pic\labintegrado2014\Firmware\controlador PI\main.c
                      a48   0x002060    program     extern C:\Users\JUNIOR\Google Drive\Maua\Aplicada2-Pic\labintegrado2014\Firmware\controlador PI\main.c
                     a480   0x0023c0    program     extern C:\Users\JUNIOR\Google Drive\Maua\Aplicada2-Pic\labintegrado2014\Firmware\controlador PI\main.c
                     a481   0x0023c2    program     extern C:\Users\JUNIOR\Google Drive\Maua\Aplicada2-Pic\labintegrado2014\Firmware\controlador PI\main.c
                     a482   0x0023c4    program     extern C:\Users\JUNIOR\Google Drive\Maua\Aplicada2-Pic\labintegrado2014\Firmware\controlador PI\main.c
                     a483   0x0023c6    program     extern C:\Users\JUNIOR\Google Drive\Maua\Aplicada2-Pic\labintegrado2014\Firmware\controlador PI\main.c
                     a484   0x0023c8    program     extern C:\Users\JUNIOR\Google Drive\Maua\Aplicada2-Pic\labintegrado2014\Firmware\controlador PI\main.c
                     a485   0x0023ca    program     extern C:\Users\JUNIOR\Google Drive\Maua\Aplicada2-Pic\labintegrado2014\Firmware\controlador PI\main.c
                     a486   0x0023cc    program     extern C:\Users\JUNIOR\Google Drive\Maua\Aplicada2-Pic\labintegrado2014\Firmware\controlador PI\main.c
                     a487   0x0023ce    program     extern C:\Users\JUNIOR\Google Drive\Maua\Aplicada2-Pic\labintegrado2014\Firmware\controlador PI\main.c
                     a488   0x0023d0    program     extern C:\Users\JUNIOR\Google Drive\Maua\Aplicada2-Pic\labintegrado2014\Firmware\controlador PI\main.c
                     a489   0x0023d2    program     extern C:\Users\JUNIOR\Google Drive\Maua\Aplicada2-Pic\labintegrado2014\Firmware\controlador PI\main.c
                      a49   0x002062    program     extern C:\Users\JUNIOR\Google Drive\Maua\Aplicada2-Pic\labintegrado2014\Firmware\controlador PI\main.c
                     a490   0x0023d4    program     extern C:\Users\JUNIOR\Google Drive\Maua\Aplicada2-Pic\labintegrado2014\Firmware\controlador PI\main.c
                     a491   0x0023d6    program     extern C:\Users\JUNIOR\Google Drive\Maua\Aplicada2-Pic\labintegrado2014\Firmware\controlador PI\main.c
                     a492   0x0023d8    program     extern C:\Users\JUNIOR\Google Drive\Maua\Aplicada2-Pic\labintegrado2014\Firmware\controlador PI\main.c
                     a493   0x0023da    program     extern C:\Users\JUNIOR\Google Drive\Maua\Aplicada2-Pic\labintegrado2014\Firmware\controlador PI\main.c
                     a494   0x0023dc    program     extern C:\Users\JUNIOR\Google Drive\Maua\Aplicada2-Pic\labintegrado2014\Firmware\controlador PI\main.c
                     a495   0x0023de    program     extern C:\Users\JUNIOR\Google Drive\Maua\Aplicada2-Pic\labintegrado2014\Firmware\controlador PI\main.c
                     a496   0x0023e0    program     extern C:\Users\JUNIOR\Google Drive\Maua\Aplicada2-Pic\labintegrado2014\Firmware\controlador PI\main.c
                     a497   0x0023e2    program     extern C:\Users\JUNIOR\Google Drive\Maua\Aplicada2-Pic\labintegrado2014\Firmware\controlador PI\main.c
                     a498   0x0023e4    program     extern C:\Users\JUNIOR\Google Drive\Maua\Aplicada2-Pic\labintegrado2014\Firmware\controlador PI\main.c
                     a499   0x0023e6    program     extern C:\Users\JUNIOR\Google Drive\Maua\Aplicada2-Pic\labintegrado2014\Firmware\controlador PI\main.c
                       a5   0x00200a    program     extern C:\Users\JUNIOR\Google Drive\Maua\Aplicada2-Pic\labintegrado2014\Firmware\controlador PI\main.c
                      a50   0x002064    program     extern C:\Users\JUNIOR\Google Drive\Maua\Aplicada2-Pic\labintegrado2014\Firmware\controlador PI\main.c
                     a500   0x0023e8    program     extern C:\Users\JUNIOR\Google Drive\Maua\Aplicada2-Pic\labintegrado2014\Firmware\controlador PI\main.c
                     a501   0x0023ea    program     extern C:\Users\JUNIOR\Google Drive\Maua\Aplicada2-Pic\labintegrado2014\Firmware\controlador PI\main.c
                     a502   0x0023ec    program     extern C:\Users\JUNIOR\Google Drive\Maua\Aplicada2-Pic\labintegrado2014\Firmware\controlador PI\main.c
                     a503   0x0023ee    program     extern C:\Users\JUNIOR\Google Drive\Maua\Aplicada2-Pic\labintegrado2014\Firmware\controlador PI\main.c
                     a504   0x0023f0    program     extern C:\Users\JUNIOR\Google Drive\Maua\Aplicada2-Pic\labintegrado2014\Firmware\controlador PI\main.c
                     a505   0x0023f2    program     extern C:\Users\JUNIOR\Google Drive\Maua\Aplicada2-Pic\labintegrado2014\Firmware\controlador PI\main.c
                     a506   0x0023f4    program     extern C:\Users\JUNIOR\Google Drive\Maua\Aplicada2-Pic\labintegrado2014\Firmware\controlador PI\main.c
                     a507   0x0023f6    program     extern C:\Users\JUNIOR\Google Drive\Maua\Aplicada2-Pic\labintegrado2014\Firmware\controlador PI\main.c
                     a508   0x0023f8    program     extern C:\Users\JUNIOR\Google Drive\Maua\Aplicada2-Pic\labintegrado2014\Firmware\controlador PI\main.c
                     a509   0x0023fa    program     extern C:\Users\JUNIOR\Google Drive\Maua\Aplicada2-Pic\labintegrado2014\Firmware\controlador PI\main.c
                      a51   0x002066    program     extern C:\Users\JUNIOR\Google Drive\Maua\Aplicada2-Pic\labintegrado2014\Firmware\controlador PI\main.c
                     a510   0x0023fc    program     extern C:\Users\JUNIOR\Google Drive\Maua\Aplicada2-Pic\labintegrado2014\Firmware\controlador PI\main.c
                     a511   0x0023fe    program     extern C:\Users\JUNIOR\Google Drive\Maua\Aplicada2-Pic\labintegrado2014\Firmware\controlador PI\main.c
                     a512   0x002400    program     extern C:\Users\JUNIOR\Google Drive\Maua\Aplicada2-Pic\labintegrado2014\Firmware\controlador PI\main.c
                     a513   0x002402    program     extern C:\Users\JUNIOR\Google Drive\Maua\Aplicada2-Pic\labintegrado2014\Firmware\controlador PI\main.c
                     a514   0x002404    program     extern C:\Users\JUNIOR\Google Drive\Maua\Aplicada2-Pic\labintegrado2014\Firmware\controlador PI\main.c
                     a515   0x002406    program     extern C:\Users\JUNIOR\Google Drive\Maua\Aplicada2-Pic\labintegrado2014\Firmware\controlador PI\main.c
                     a516   0x002408    program     extern C:\Users\JUNIOR\Google Drive\Maua\Aplicada2-Pic\labintegrado2014\Firmware\controlador PI\main.c
                     a517   0x00240a    program     extern C:\Users\JUNIOR\Google Drive\Maua\Aplicada2-Pic\labintegrado2014\Firmware\controlador PI\main.c
                     a518   0x00240c    program     extern C:\Users\JUNIOR\Google Drive\Maua\Aplicada2-Pic\labintegrado2014\Firmware\controlador PI\main.c
                     a519   0x00240e    program     extern C:\Users\JUNIOR\Google Drive\Maua\Aplicada2-Pic\labintegrado2014\Firmware\controlador PI\main.c
                      a52   0x002068    program     extern C:\Users\JUNIOR\Google Drive\Maua\Aplicada2-Pic\labintegrado2014\Firmware\controlador PI\main.c
                     a520   0x002410    program     extern C:\Users\JUNIOR\Google Drive\Maua\Aplicada2-Pic\labintegrado2014\Firmware\controlador PI\main.c
                     a521   0x002412    program     extern C:\Users\JUNIOR\Google Drive\Maua\Aplicada2-Pic\labintegrado2014\Firmware\controlador PI\main.c
                     a522   0x002414    program     extern C:\Users\JUNIOR\Google Drive\Maua\Aplicada2-Pic\labintegrado2014\Firmware\controlador PI\main.c
                     a523   0x002416    program     extern C:\Users\JUNIOR\Google Drive\Maua\Aplicada2-Pic\labintegrado2014\Firmware\controlador PI\main.c
                     a524   0x002418    program     extern C:\Users\JUNIOR\Google Drive\Maua\Aplicada2-Pic\labintegrado2014\Firmware\controlador PI\main.c
                     a525   0x00241a    program     extern C:\Users\JUNIOR\Google Drive\Maua\Aplicada2-Pic\labintegrado2014\Firmware\controlador PI\main.c
                     a526   0x00241c    program     extern C:\Users\JUNIOR\Google Drive\Maua\Aplicada2-Pic\labintegrado2014\Firmware\controlador PI\main.c
                     a527   0x00241e    program     extern C:\Users\JUNIOR\Google Drive\Maua\Aplicada2-Pic\labintegrado2014\Firmware\controlador PI\main.c
                     a528   0x002420    program     extern C:\Users\JUNIOR\Google Drive\Maua\Aplicada2-Pic\labintegrado2014\Firmware\controlador PI\main.c
                     a529   0x002422    program     extern C:\Users\JUNIOR\Google Drive\Maua\Aplicada2-Pic\labintegrado2014\Firmware\controlador PI\main.c
                      a53   0x00206a    program     extern C:\Users\JUNIOR\Google Drive\Maua\Aplicada2-Pic\labintegrado2014\Firmware\controlador PI\main.c
                     a530   0x002424    program     extern C:\Users\JUNIOR\Google Drive\Maua\Aplicada2-Pic\labintegrado2014\Firmware\controlador PI\main.c
                     a531   0x002426    program     extern C:\Users\JUNIOR\Google Drive\Maua\Aplicada2-Pic\labintegrado2014\Firmware\controlador PI\main.c
                     a532   0x002428    program     extern C:\Users\JUNIOR\Google Drive\Maua\Aplicada2-Pic\labintegrado2014\Firmware\controlador PI\main.c
                     a533   0x00242a    program     extern C:\Users\JUNIOR\Google Drive\Maua\Aplicada2-Pic\labintegrado2014\Firmware\controlador PI\main.c
                     a534   0x00242c    program     extern C:\Users\JUNIOR\Google Drive\Maua\Aplicada2-Pic\labintegrado2014\Firmware\controlador PI\main.c
                     a535   0x00242e    program     extern C:\Users\JUNIOR\Google Drive\Maua\Aplicada2-Pic\labintegrado2014\Firmware\controlador PI\main.c
                     a536   0x002430    program     extern C:\Users\JUNIOR\Google Drive\Maua\Aplicada2-Pic\labintegrado2014\Firmware\controlador PI\main.c
                     a537   0x002432    program     extern C:\Users\JUNIOR\Google Drive\Maua\Aplicada2-Pic\labintegrado2014\Firmware\controlador PI\main.c
                     a538   0x002434    program     extern C:\Users\JUNIOR\Google Drive\Maua\Aplicada2-Pic\labintegrado2014\Firmware\controlador PI\main.c
                     a539   0x002436    program     extern C:\Users\JUNIOR\Google Drive\Maua\Aplicada2-Pic\labintegrado2014\Firmware\controlador PI\main.c
                      a54   0x00206c    program     extern C:\Users\JUNIOR\Google Drive\Maua\Aplicada2-Pic\labintegrado2014\Firmware\controlador PI\main.c
                     a540   0x002438    program     extern C:\Users\JUNIOR\Google Drive\Maua\Aplicada2-Pic\labintegrado2014\Firmware\controlador PI\main.c
                     a541   0x00243a    program     extern C:\Users\JUNIOR\Google Drive\Maua\Aplicada2-Pic\labintegrado2014\Firmware\controlador PI\main.c
                     a542   0x00243c    program     extern C:\Users\JUNIOR\Google Drive\Maua\Aplicada2-Pic\labintegrado2014\Firmware\controlador PI\main.c
                     a543   0x00243e    program     extern C:\Users\JUNIOR\Google Drive\Maua\Aplicada2-Pic\labintegrado2014\Firmware\controlador PI\main.c
                     a544   0x002440    program     extern C:\Users\JUNIOR\Google Drive\Maua\Aplicada2-Pic\labintegrado2014\Firmware\controlador PI\main.c
                     a545   0x002442    program     extern C:\Users\JUNIOR\Google Drive\Maua\Aplicada2-Pic\labintegrado2014\Firmware\controlador PI\main.c
                     a546   0x002444    program     extern C:\Users\JUNIOR\Google Drive\Maua\Aplicada2-Pic\labintegrado2014\Firmware\controlador PI\main.c
                     a547   0x002446    program     extern C:\Users\JUNIOR\Google Drive\Maua\Aplicada2-Pic\labintegrado2014\Firmware\controlador PI\main.c
                     a548   0x002448    program     extern C:\Users\JUNIOR\Google Drive\Maua\Aplicada2-Pic\labintegrado2014\Firmware\controlador PI\main.c
                     a549   0x00244a    program     extern C:\Users\JUNIOR\Google Drive\Maua\Aplicada2-Pic\labintegrado2014\Firmware\controlador PI\main.c
                      a55   0x00206e    program     extern C:\Users\JUNIOR\Google Drive\Maua\Aplicada2-Pic\labintegrado2014\Firmware\controlador PI\main.c
                     a550   0x00244c    program     extern C:\Users\JUNIOR\Google Drive\Maua\Aplicada2-Pic\labintegrado2014\Firmware\controlador PI\main.c
                     a551   0x00244e    program     extern C:\Users\JUNIOR\Google Drive\Maua\Aplicada2-Pic\labintegrado2014\Firmware\controlador PI\main.c
                     a552   0x002450    program     extern C:\Users\JUNIOR\Google Drive\Maua\Aplicada2-Pic\labintegrado2014\Firmware\controlador PI\main.c
                     a553   0x002452    program     extern C:\Users\JUNIOR\Google Drive\Maua\Aplicada2-Pic\labintegrado2014\Firmware\controlador PI\main.c
                     a554   0x002454    program     extern C:\Users\JUNIOR\Google Drive\Maua\Aplicada2-Pic\labintegrado2014\Firmware\controlador PI\main.c
                     a555   0x002456    program     extern C:\Users\JUNIOR\Google Drive\Maua\Aplicada2-Pic\labintegrado2014\Firmware\controlador PI\main.c
                     a556   0x002458    program     extern C:\Users\JUNIOR\Google Drive\Maua\Aplicada2-Pic\labintegrado2014\Firmware\controlador PI\main.c
                     a557   0x00245a    program     extern C:\Users\JUNIOR\Google Drive\Maua\Aplicada2-Pic\labintegrado2014\Firmware\controlador PI\main.c
                     a558   0x00245c    program     extern C:\Users\JUNIOR\Google Drive\Maua\Aplicada2-Pic\labintegrado2014\Firmware\controlador PI\main.c
                     a559   0x00245e    program     extern C:\Users\JUNIOR\Google Drive\Maua\Aplicada2-Pic\labintegrado2014\Firmware\controlador PI\main.c
                      a56   0x002070    program     extern C:\Users\JUNIOR\Google Drive\Maua\Aplicada2-Pic\labintegrado2014\Firmware\controlador PI\main.c
                     a560   0x002460    program     extern C:\Users\JUNIOR\Google Drive\Maua\Aplicada2-Pic\labintegrado2014\Firmware\controlador PI\main.c
                     a561   0x002462    program     extern C:\Users\JUNIOR\Google Drive\Maua\Aplicada2-Pic\labintegrado2014\Firmware\controlador PI\main.c
                     a562   0x002464    program     extern C:\Users\JUNIOR\Google Drive\Maua\Aplicada2-Pic\labintegrado2014\Firmware\controlador PI\main.c
                     a563   0x002466    program     extern C:\Users\JUNIOR\Google Drive\Maua\Aplicada2-Pic\labintegrado2014\Firmware\controlador PI\main.c
                     a564   0x002468    program     extern C:\Users\JUNIOR\Google Drive\Maua\Aplicada2-Pic\labintegrado2014\Firmware\controlador PI\main.c
                     a565   0x00246a    program     extern C:\Users\JUNIOR\Google Drive\Maua\Aplicada2-Pic\labintegrado2014\Firmware\controlador PI\main.c
                     a566   0x00246c    program     extern C:\Users\JUNIOR\Google Drive\Maua\Aplicada2-Pic\labintegrado2014\Firmware\controlador PI\main.c
                     a567   0x00246e    program     extern C:\Users\JUNIOR\Google Drive\Maua\Aplicada2-Pic\labintegrado2014\Firmware\controlador PI\main.c
                     a568   0x002470    program     extern C:\Users\JUNIOR\Google Drive\Maua\Aplicada2-Pic\labintegrado2014\Firmware\controlador PI\main.c
                     a569   0x002472    program     extern C:\Users\JUNIOR\Google Drive\Maua\Aplicada2-Pic\labintegrado2014\Firmware\controlador PI\main.c
                      a57   0x002072    program     extern C:\Users\JUNIOR\Google Drive\Maua\Aplicada2-Pic\labintegrado2014\Firmware\controlador PI\main.c
                     a570   0x002474    program     extern C:\Users\JUNIOR\Google Drive\Maua\Aplicada2-Pic\labintegrado2014\Firmware\controlador PI\main.c
                     a571   0x002476    program     extern C:\Users\JUNIOR\Google Drive\Maua\Aplicada2-Pic\labintegrado2014\Firmware\controlador PI\main.c
                     a572   0x002478    program     extern C:\Users\JUNIOR\Google Drive\Maua\Aplicada2-Pic\labintegrado2014\Firmware\controlador PI\main.c
                     a573   0x00247a    program     extern C:\Users\JUNIOR\Google Drive\Maua\Aplicada2-Pic\labintegrado2014\Firmware\controlador PI\main.c
                     a574   0x00247c    program     extern C:\Users\JUNIOR\Google Drive\Maua\Aplicada2-Pic\labintegrado2014\Firmware\controlador PI\main.c
                     a575   0x00247e    program     extern C:\Users\JUNIOR\Google Drive\Maua\Aplicada2-Pic\labintegrado2014\Firmware\controlador PI\main.c
                     a576   0x002480    program     extern C:\Users\JUNIOR\Google Drive\Maua\Aplicada2-Pic\labintegrado2014\Firmware\controlador PI\main.c
                     a577   0x002482    program     extern C:\Users\JUNIOR\Google Drive\Maua\Aplicada2-Pic\labintegrado2014\Firmware\controlador PI\main.c
                     a578   0x002484    program     extern C:\Users\JUNIOR\Google Drive\Maua\Aplicada2-Pic\labintegrado2014\Firmware\controlador PI\main.c
                     a579   0x002486    program     extern C:\Users\JUNIOR\Google Drive\Maua\Aplicada2-Pic\labintegrado2014\Firmware\controlador PI\main.c
                      a58   0x002074    program     extern C:\Users\JUNIOR\Google Drive\Maua\Aplicada2-Pic\labintegrado2014\Firmware\controlador PI\main.c
                     a580   0x002488    program     extern C:\Users\JUNIOR\Google Drive\Maua\Aplicada2-Pic\labintegrado2014\Firmware\controlador PI\main.c
                     a581   0x00248a    program     extern C:\Users\JUNIOR\Google Drive\Maua\Aplicada2-Pic\labintegrado2014\Firmware\controlador PI\main.c
                     a582   0x00248c    program     extern C:\Users\JUNIOR\Google Drive\Maua\Aplicada2-Pic\labintegrado2014\Firmware\controlador PI\main.c
                     a583   0x00248e    program     extern C:\Users\JUNIOR\Google Drive\Maua\Aplicada2-Pic\labintegrado2014\Firmware\controlador PI\main.c
                     a584   0x002490    program     extern C:\Users\JUNIOR\Google Drive\Maua\Aplicada2-Pic\labintegrado2014\Firmware\controlador PI\main.c
                     a585   0x002492    program     extern C:\Users\JUNIOR\Google Drive\Maua\Aplicada2-Pic\labintegrado2014\Firmware\controlador PI\main.c
                     a586   0x002494    program     extern C:\Users\JUNIOR\Google Drive\Maua\Aplicada2-Pic\labintegrado2014\Firmware\controlador PI\main.c
                     a587   0x002496    program     extern C:\Users\JUNIOR\Google Drive\Maua\Aplicada2-Pic\labintegrado2014\Firmware\controlador PI\main.c
                     a588   0x002498    program     extern C:\Users\JUNIOR\Google Drive\Maua\Aplicada2-Pic\labintegrado2014\Firmware\controlador PI\main.c
                     a589   0x00249a    program     extern C:\Users\JUNIOR\Google Drive\Maua\Aplicada2-Pic\labintegrado2014\Firmware\controlador PI\main.c
                      a59   0x002076    program     extern C:\Users\JUNIOR\Google Drive\Maua\Aplicada2-Pic\labintegrado2014\Firmware\controlador PI\main.c
                     a590   0x00249c    program     extern C:\Users\JUNIOR\Google Drive\Maua\Aplicada2-Pic\labintegrado2014\Firmware\controlador PI\main.c
                     a591   0x00249e    program     extern C:\Users\JUNIOR\Google Drive\Maua\Aplicada2-Pic\labintegrado2014\Firmware\controlador PI\main.c
                     a592   0x0024a0    program     extern C:\Users\JUNIOR\Google Drive\Maua\Aplicada2-Pic\labintegrado2014\Firmware\controlador PI\main.c
                     a593   0x0024a2    program     extern C:\Users\JUNIOR\Google Drive\Maua\Aplicada2-Pic\labintegrado2014\Firmware\controlador PI\main.c
                     a594   0x0024a4    program     extern C:\Users\JUNIOR\Google Drive\Maua\Aplicada2-Pic\labintegrado2014\Firmware\controlador PI\main.c
                     a595   0x0024a6    program     extern C:\Users\JUNIOR\Google Drive\Maua\Aplicada2-Pic\labintegrado2014\Firmware\controlador PI\main.c
                     a596   0x0024a8    program     extern C:\Users\JUNIOR\Google Drive\Maua\Aplicada2-Pic\labintegrado2014\Firmware\controlador PI\main.c
                     a597   0x0024aa    program     extern C:\Users\JUNIOR\Google Drive\Maua\Aplicada2-Pic\labintegrado2014\Firmware\controlador PI\main.c
                     a598   0x0024ac    program     extern C:\Users\JUNIOR\Google Drive\Maua\Aplicada2-Pic\labintegrado2014\Firmware\controlador PI\main.c
                     a599   0x0024ae    program     extern C:\Users\JUNIOR\Google Drive\Maua\Aplicada2-Pic\labintegrado2014\Firmware\controlador PI\main.c
                       a6   0x00200c    program     extern C:\Users\JUNIOR\Google Drive\Maua\Aplicada2-Pic\labintegrado2014\Firmware\controlador PI\main.c
                      a60   0x002078    program     extern C:\Users\JUNIOR\Google Drive\Maua\Aplicada2-Pic\labintegrado2014\Firmware\controlador PI\main.c
                     a600   0x0024b0    program     extern C:\Users\JUNIOR\Google Drive\Maua\Aplicada2-Pic\labintegrado2014\Firmware\controlador PI\main.c
                     a601   0x0024b2    program     extern C:\Users\JUNIOR\Google Drive\Maua\Aplicada2-Pic\labintegrado2014\Firmware\controlador PI\main.c
                     a602   0x0024b4    program     extern C:\Users\JUNIOR\Google Drive\Maua\Aplicada2-Pic\labintegrado2014\Firmware\controlador PI\main.c
                     a603   0x0024b6    program     extern C:\Users\JUNIOR\Google Drive\Maua\Aplicada2-Pic\labintegrado2014\Firmware\controlador PI\main.c
                     a604   0x0024b8    program     extern C:\Users\JUNIOR\Google Drive\Maua\Aplicada2-Pic\labintegrado2014\Firmware\controlador PI\main.c
                     a605   0x0024ba    program     extern C:\Users\JUNIOR\Google Drive\Maua\Aplicada2-Pic\labintegrado2014\Firmware\controlador PI\main.c
                     a606   0x0024bc    program     extern C:\Users\JUNIOR\Google Drive\Maua\Aplicada2-Pic\labintegrado2014\Firmware\controlador PI\main.c
                     a607   0x0024be    program     extern C:\Users\JUNIOR\Google Drive\Maua\Aplicada2-Pic\labintegrado2014\Firmware\controlador PI\main.c
                     a608   0x0024c0    program     extern C:\Users\JUNIOR\Google Drive\Maua\Aplicada2-Pic\labintegrado2014\Firmware\controlador PI\main.c
                     a609   0x0024c2    program     extern C:\Users\JUNIOR\Google Drive\Maua\Aplicada2-Pic\labintegrado2014\Firmware\controlador PI\main.c
                      a61   0x00207a    program     extern C:\Users\JUNIOR\Google Drive\Maua\Aplicada2-Pic\labintegrado2014\Firmware\controlador PI\main.c
                     a610   0x0024c4    program     extern C:\Users\JUNIOR\Google Drive\Maua\Aplicada2-Pic\labintegrado2014\Firmware\controlador PI\main.c
                     a611   0x0024c6    program     extern C:\Users\JUNIOR\Google Drive\Maua\Aplicada2-Pic\labintegrado2014\Firmware\controlador PI\main.c
                     a612   0x0024c8    program     extern C:\Users\JUNIOR\Google Drive\Maua\Aplicada2-Pic\labintegrado2014\Firmware\controlador PI\main.c
                     a613   0x0024ca    program     extern C:\Users\JUNIOR\Google Drive\Maua\Aplicada2-Pic\labintegrado2014\Firmware\controlador PI\main.c
                     a614   0x0024cc    program     extern C:\Users\JUNIOR\Google Drive\Maua\Aplicada2-Pic\labintegrado2014\Firmware\controlador PI\main.c
                     a615   0x0024ce    program     extern C:\Users\JUNIOR\Google Drive\Maua\Aplicada2-Pic\labintegrado2014\Firmware\controlador PI\main.c
                     a616   0x0024d0    program     extern C:\Users\JUNIOR\Google Drive\Maua\Aplicada2-Pic\labintegrado2014\Firmware\controlador PI\main.c
                     a617   0x0024d2    program     extern C:\Users\JUNIOR\Google Drive\Maua\Aplicada2-Pic\labintegrado2014\Firmware\controlador PI\main.c
                     a618   0x0024d4    program     extern C:\Users\JUNIOR\Google Drive\Maua\Aplicada2-Pic\labintegrado2014\Firmware\controlador PI\main.c
                     a619   0x0024d6    program     extern C:\Users\JUNIOR\Google Drive\Maua\Aplicada2-Pic\labintegrado2014\Firmware\controlador PI\main.c
                      a62   0x00207c    program     extern C:\Users\JUNIOR\Google Drive\Maua\Aplicada2-Pic\labintegrado2014\Firmware\controlador PI\main.c
                     a620   0x0024d8    program     extern C:\Users\JUNIOR\Google Drive\Maua\Aplicada2-Pic\labintegrado2014\Firmware\controlador PI\main.c
                     a621   0x0024da    program     extern C:\Users\JUNIOR\Google Drive\Maua\Aplicada2-Pic\labintegrado2014\Firmware\controlador PI\main.c
                     a622   0x0024dc    program     extern C:\Users\JUNIOR\Google Drive\Maua\Aplicada2-Pic\labintegrado2014\Firmware\controlador PI\main.c
                     a623   0x0024de    program     extern C:\Users\JUNIOR\Google Drive\Maua\Aplicada2-Pic\labintegrado2014\Firmware\controlador PI\main.c
                     a624   0x0024e0    program     extern C:\Users\JUNIOR\Google Drive\Maua\Aplicada2-Pic\labintegrado2014\Firmware\controlador PI\main.c
                     a625   0x0024e2    program     extern C:\Users\JUNIOR\Google Drive\Maua\Aplicada2-Pic\labintegrado2014\Firmware\controlador PI\main.c
                     a626   0x0024e4    program     extern C:\Users\JUNIOR\Google Drive\Maua\Aplicada2-Pic\labintegrado2014\Firmware\controlador PI\main.c
                     a627   0x0024e6    program     extern C:\Users\JUNIOR\Google Drive\Maua\Aplicada2-Pic\labintegrado2014\Firmware\controlador PI\main.c
                     a628   0x0024e8    program     extern C:\Users\JUNIOR\Google Drive\Maua\Aplicada2-Pic\labintegrado2014\Firmware\controlador PI\main.c
                     a629   0x0024ea    program     extern C:\Users\JUNIOR\Google Drive\Maua\Aplicada2-Pic\labintegrado2014\Firmware\controlador PI\main.c
                      a63   0x00207e    program     extern C:\Users\JUNIOR\Google Drive\Maua\Aplicada2-Pic\labintegrado2014\Firmware\controlador PI\main.c
                     a630   0x0024ec    program     extern C:\Users\JUNIOR\Google Drive\Maua\Aplicada2-Pic\labintegrado2014\Firmware\controlador PI\main.c
                     a631   0x0024ee    program     extern C:\Users\JUNIOR\Google Drive\Maua\Aplicada2-Pic\labintegrado2014\Firmware\controlador PI\main.c
                     a632   0x0024f0    program     extern C:\Users\JUNIOR\Google Drive\Maua\Aplicada2-Pic\labintegrado2014\Firmware\controlador PI\main.c
                     a633   0x0024f2    program     extern C:\Users\JUNIOR\Google Drive\Maua\Aplicada2-Pic\labintegrado2014\Firmware\controlador PI\main.c
                     a634   0x0024f4    program     extern C:\Users\JUNIOR\Google Drive\Maua\Aplicada2-Pic\labintegrado2014\Firmware\controlador PI\main.c
                     a635   0x0024f6    program     extern C:\Users\JUNIOR\Google Drive\Maua\Aplicada2-Pic\labintegrado2014\Firmware\controlador PI\main.c
                     a636   0x0024f8    program     extern C:\Users\JUNIOR\Google Drive\Maua\Aplicada2-Pic\labintegrado2014\Firmware\controlador PI\main.c
                     a637   0x0024fa    program     extern C:\Users\JUNIOR\Google Drive\Maua\Aplicada2-Pic\labintegrado2014\Firmware\controlador PI\main.c
                     a638   0x0024fc    program     extern C:\Users\JUNIOR\Google Drive\Maua\Aplicada2-Pic\labintegrado2014\Firmware\controlador PI\main.c
                     a639   0x0024fe    program     extern C:\Users\JUNIOR\Google Drive\Maua\Aplicada2-Pic\labintegrado2014\Firmware\controlador PI\main.c
                      a64   0x002080    program     extern C:\Users\JUNIOR\Google Drive\Maua\Aplicada2-Pic\labintegrado2014\Firmware\controlador PI\main.c
                     a640   0x002500    program     extern C:\Users\JUNIOR\Google Drive\Maua\Aplicada2-Pic\labintegrado2014\Firmware\controlador PI\main.c
                     a641   0x002502    program     extern C:\Users\JUNIOR\Google Drive\Maua\Aplicada2-Pic\labintegrado2014\Firmware\controlador PI\main.c
                     a642   0x002504    program     extern C:\Users\JUNIOR\Google Drive\Maua\Aplicada2-Pic\labintegrado2014\Firmware\controlador PI\main.c
                     a643   0x002506    program     extern C:\Users\JUNIOR\Google Drive\Maua\Aplicada2-Pic\labintegrado2014\Firmware\controlador PI\main.c
                     a644   0x002508    program     extern C:\Users\JUNIOR\Google Drive\Maua\Aplicada2-Pic\labintegrado2014\Firmware\controlador PI\main.c
                     a645   0x00250a    program     extern C:\Users\JUNIOR\Google Drive\Maua\Aplicada2-Pic\labintegrado2014\Firmware\controlador PI\main.c
                     a646   0x00250c    program     extern C:\Users\JUNIOR\Google Drive\Maua\Aplicada2-Pic\labintegrado2014\Firmware\controlador PI\main.c
                     a647   0x00250e    program     extern C:\Users\JUNIOR\Google Drive\Maua\Aplicada2-Pic\labintegrado2014\Firmware\controlador PI\main.c
                     a648   0x002510    program     extern C:\Users\JUNIOR\Google Drive\Maua\Aplicada2-Pic\labintegrado2014\Firmware\controlador PI\main.c
                     a649   0x002512    program     extern C:\Users\JUNIOR\Google Drive\Maua\Aplicada2-Pic\labintegrado2014\Firmware\controlador PI\main.c
                      a65   0x002082    program     extern C:\Users\JUNIOR\Google Drive\Maua\Aplicada2-Pic\labintegrado2014\Firmware\controlador PI\main.c
                     a650   0x002514    program     extern C:\Users\JUNIOR\Google Drive\Maua\Aplicada2-Pic\labintegrado2014\Firmware\controlador PI\main.c
                     a651   0x002516    program     extern C:\Users\JUNIOR\Google Drive\Maua\Aplicada2-Pic\labintegrado2014\Firmware\controlador PI\main.c
                     a652   0x002518    program     extern C:\Users\JUNIOR\Google Drive\Maua\Aplicada2-Pic\labintegrado2014\Firmware\controlador PI\main.c
                     a653   0x00251a    program     extern C:\Users\JUNIOR\Google Drive\Maua\Aplicada2-Pic\labintegrado2014\Firmware\controlador PI\main.c
                     a654   0x00251c    program     extern C:\Users\JUNIOR\Google Drive\Maua\Aplicada2-Pic\labintegrado2014\Firmware\controlador PI\main.c
                     a655   0x00251e    program     extern C:\Users\JUNIOR\Google Drive\Maua\Aplicada2-Pic\labintegrado2014\Firmware\controlador PI\main.c
                     a656   0x002520    program     extern C:\Users\JUNIOR\Google Drive\Maua\Aplicada2-Pic\labintegrado2014\Firmware\controlador PI\main.c
                     a657   0x002522    program     extern C:\Users\JUNIOR\Google Drive\Maua\Aplicada2-Pic\labintegrado2014\Firmware\controlador PI\main.c
                     a658   0x002524    program     extern C:\Users\JUNIOR\Google Drive\Maua\Aplicada2-Pic\labintegrado2014\Firmware\controlador PI\main.c
                     a659   0x002526    program     extern C:\Users\JUNIOR\Google Drive\Maua\Aplicada2-Pic\labintegrado2014\Firmware\controlador PI\main.c
                      a66   0x002084    program     extern C:\Users\JUNIOR\Google Drive\Maua\Aplicada2-Pic\labintegrado2014\Firmware\controlador PI\main.c
                     a660   0x002528    program     extern C:\Users\JUNIOR\Google Drive\Maua\Aplicada2-Pic\labintegrado2014\Firmware\controlador PI\main.c
                     a661   0x00252a    program     extern C:\Users\JUNIOR\Google Drive\Maua\Aplicada2-Pic\labintegrado2014\Firmware\controlador PI\main.c
                     a662   0x00252c    program     extern C:\Users\JUNIOR\Google Drive\Maua\Aplicada2-Pic\labintegrado2014\Firmware\controlador PI\main.c
                     a663   0x00252e    program     extern C:\Users\JUNIOR\Google Drive\Maua\Aplicada2-Pic\labintegrado2014\Firmware\controlador PI\main.c
                     a664   0x002530    program     extern C:\Users\JUNIOR\Google Drive\Maua\Aplicada2-Pic\labintegrado2014\Firmware\controlador PI\main.c
                     a665   0x002532    program     extern C:\Users\JUNIOR\Google Drive\Maua\Aplicada2-Pic\labintegrado2014\Firmware\controlador PI\main.c
                     a666   0x002534    program     extern C:\Users\JUNIOR\Google Drive\Maua\Aplicada2-Pic\labintegrado2014\Firmware\controlador PI\main.c
                     a667   0x002536    program     extern C:\Users\JUNIOR\Google Drive\Maua\Aplicada2-Pic\labintegrado2014\Firmware\controlador PI\main.c
                     a668   0x002538    program     extern C:\Users\JUNIOR\Google Drive\Maua\Aplicada2-Pic\labintegrado2014\Firmware\controlador PI\main.c
                     a669   0x00253a    program     extern C:\Users\JUNIOR\Google Drive\Maua\Aplicada2-Pic\labintegrado2014\Firmware\controlador PI\main.c
                      a67   0x002086    program     extern C:\Users\JUNIOR\Google Drive\Maua\Aplicada2-Pic\labintegrado2014\Firmware\controlador PI\main.c
                     a670   0x00253c    program     extern C:\Users\JUNIOR\Google Drive\Maua\Aplicada2-Pic\labintegrado2014\Firmware\controlador PI\main.c
                     a671   0x00253e    program     extern C:\Users\JUNIOR\Google Drive\Maua\Aplicada2-Pic\labintegrado2014\Firmware\controlador PI\main.c
                     a672   0x002540    program     extern C:\Users\JUNIOR\Google Drive\Maua\Aplicada2-Pic\labintegrado2014\Firmware\controlador PI\main.c
                     a673   0x002542    program     extern C:\Users\JUNIOR\Google Drive\Maua\Aplicada2-Pic\labintegrado2014\Firmware\controlador PI\main.c
                     a674   0x002544    program     extern C:\Users\JUNIOR\Google Drive\Maua\Aplicada2-Pic\labintegrado2014\Firmware\controlador PI\main.c
                     a675   0x002546    program     extern C:\Users\JUNIOR\Google Drive\Maua\Aplicada2-Pic\labintegrado2014\Firmware\controlador PI\main.c
                     a676   0x002548    program     extern C:\Users\JUNIOR\Google Drive\Maua\Aplicada2-Pic\labintegrado2014\Firmware\controlador PI\main.c
                     a677   0x00254a    program     extern C:\Users\JUNIOR\Google Drive\Maua\Aplicada2-Pic\labintegrado2014\Firmware\controlador PI\main.c
                     a678   0x00254c    program     extern C:\Users\JUNIOR\Google Drive\Maua\Aplicada2-Pic\labintegrado2014\Firmware\controlador PI\main.c
                     a679   0x00254e    program     extern C:\Users\JUNIOR\Google Drive\Maua\Aplicada2-Pic\labintegrado2014\Firmware\controlador PI\main.c
                      a68   0x002088    program     extern C:\Users\JUNIOR\Google Drive\Maua\Aplicada2-Pic\labintegrado2014\Firmware\controlador PI\main.c
                     a680   0x002550    program     extern C:\Users\JUNIOR\Google Drive\Maua\Aplicada2-Pic\labintegrado2014\Firmware\controlador PI\main.c
                     a681   0x002552    program     extern C:\Users\JUNIOR\Google Drive\Maua\Aplicada2-Pic\labintegrado2014\Firmware\controlador PI\main.c
                     a682   0x002554    program     extern C:\Users\JUNIOR\Google Drive\Maua\Aplicada2-Pic\labintegrado2014\Firmware\controlador PI\main.c
                     a683   0x002556    program     extern C:\Users\JUNIOR\Google Drive\Maua\Aplicada2-Pic\labintegrado2014\Firmware\controlador PI\main.c
                     a684   0x002558    program     extern C:\Users\JUNIOR\Google Drive\Maua\Aplicada2-Pic\labintegrado2014\Firmware\controlador PI\main.c
                     a685   0x00255a    program     extern C:\Users\JUNIOR\Google Drive\Maua\Aplicada2-Pic\labintegrado2014\Firmware\controlador PI\main.c
                     a686   0x00255c    program     extern C:\Users\JUNIOR\Google Drive\Maua\Aplicada2-Pic\labintegrado2014\Firmware\controlador PI\main.c
                     a687   0x00255e    program     extern C:\Users\JUNIOR\Google Drive\Maua\Aplicada2-Pic\labintegrado2014\Firmware\controlador PI\main.c
                     a688   0x002560    program     extern C:\Users\JUNIOR\Google Drive\Maua\Aplicada2-Pic\labintegrado2014\Firmware\controlador PI\main.c
                     a689   0x002562    program     extern C:\Users\JUNIOR\Google Drive\Maua\Aplicada2-Pic\labintegrado2014\Firmware\controlador PI\main.c
                      a69   0x00208a    program     extern C:\Users\JUNIOR\Google Drive\Maua\Aplicada2-Pic\labintegrado2014\Firmware\controlador PI\main.c
                     a690   0x002564    program     extern C:\Users\JUNIOR\Google Drive\Maua\Aplicada2-Pic\labintegrado2014\Firmware\controlador PI\main.c
                     a691   0x002566    program     extern C:\Users\JUNIOR\Google Drive\Maua\Aplicada2-Pic\labintegrado2014\Firmware\controlador PI\main.c
                     a692   0x002568    program     extern C:\Users\JUNIOR\Google Drive\Maua\Aplicada2-Pic\labintegrado2014\Firmware\controlador PI\main.c
                     a693   0x00256a    program     extern C:\Users\JUNIOR\Google Drive\Maua\Aplicada2-Pic\labintegrado2014\Firmware\controlador PI\main.c
                     a694   0x00256c    program     extern C:\Users\JUNIOR\Google Drive\Maua\Aplicada2-Pic\labintegrado2014\Firmware\controlador PI\main.c
                     a695   0x00256e    program     extern C:\Users\JUNIOR\Google Drive\Maua\Aplicada2-Pic\labintegrado2014\Firmware\controlador PI\main.c
                     a696   0x002570    program     extern C:\Users\JUNIOR\Google Drive\Maua\Aplicada2-Pic\labintegrado2014\Firmware\controlador PI\main.c
                     a697   0x002572    program     extern C:\Users\JUNIOR\Google Drive\Maua\Aplicada2-Pic\labintegrado2014\Firmware\controlador PI\main.c
                     a698   0x002574    program     extern C:\Users\JUNIOR\Google Drive\Maua\Aplicada2-Pic\labintegrado2014\Firmware\controlador PI\main.c
                     a699   0x002576    program     extern C:\Users\JUNIOR\Google Drive\Maua\Aplicada2-Pic\labintegrado2014\Firmware\controlador PI\main.c
                       a7   0x00200e    program     extern C:\Users\JUNIOR\Google Drive\Maua\Aplicada2-Pic\labintegrado2014\Firmware\controlador PI\main.c
                      a70   0x00208c    program     extern C:\Users\JUNIOR\Google Drive\Maua\Aplicada2-Pic\labintegrado2014\Firmware\controlador PI\main.c
                     a700   0x002578    program     extern C:\Users\JUNIOR\Google Drive\Maua\Aplicada2-Pic\labintegrado2014\Firmware\controlador PI\main.c
                     a701   0x00257a    program     extern C:\Users\JUNIOR\Google Drive\Maua\Aplicada2-Pic\labintegrado2014\Firmware\controlador PI\main.c
                     a702   0x00257c    program     extern C:\Users\JUNIOR\Google Drive\Maua\Aplicada2-Pic\labintegrado2014\Firmware\controlador PI\main.c
                     a703   0x00257e    program     extern C:\Users\JUNIOR\Google Drive\Maua\Aplicada2-Pic\labintegrado2014\Firmware\controlador PI\main.c
                     a704   0x002580    program     extern C:\Users\JUNIOR\Google Drive\Maua\Aplicada2-Pic\labintegrado2014\Firmware\controlador PI\main.c
                     a705   0x002582    program     extern C:\Users\JUNIOR\Google Drive\Maua\Aplicada2-Pic\labintegrado2014\Firmware\controlador PI\main.c
                     a706   0x002584    program     extern C:\Users\JUNIOR\Google Drive\Maua\Aplicada2-Pic\labintegrado2014\Firmware\controlador PI\main.c
                     a707   0x002586    program     extern C:\Users\JUNIOR\Google Drive\Maua\Aplicada2-Pic\labintegrado2014\Firmware\controlador PI\main.c
                     a708   0x002588    program     extern C:\Users\JUNIOR\Google Drive\Maua\Aplicada2-Pic\labintegrado2014\Firmware\controlador PI\main.c
                     a709   0x00258a    program     extern C:\Users\JUNIOR\Google Drive\Maua\Aplicada2-Pic\labintegrado2014\Firmware\controlador PI\main.c
                      a71   0x00208e    program     extern C:\Users\JUNIOR\Google Drive\Maua\Aplicada2-Pic\labintegrado2014\Firmware\controlador PI\main.c
                     a710   0x00258c    program     extern C:\Users\JUNIOR\Google Drive\Maua\Aplicada2-Pic\labintegrado2014\Firmware\controlador PI\main.c
                     a711   0x00258e    program     extern C:\Users\JUNIOR\Google Drive\Maua\Aplicada2-Pic\labintegrado2014\Firmware\controlador PI\main.c
                     a712   0x002590    program     extern C:\Users\JUNIOR\Google Drive\Maua\Aplicada2-Pic\labintegrado2014\Firmware\controlador PI\main.c
                     a713   0x002592    program     extern C:\Users\JUNIOR\Google Drive\Maua\Aplicada2-Pic\labintegrado2014\Firmware\controlador PI\main.c
                     a714   0x002594    program     extern C:\Users\JUNIOR\Google Drive\Maua\Aplicada2-Pic\labintegrado2014\Firmware\controlador PI\main.c
                     a715   0x002596    program     extern C:\Users\JUNIOR\Google Drive\Maua\Aplicada2-Pic\labintegrado2014\Firmware\controlador PI\main.c
                     a716   0x002598    program     extern C:\Users\JUNIOR\Google Drive\Maua\Aplicada2-Pic\labintegrado2014\Firmware\controlador PI\main.c
                     a717   0x00259a    program     extern C:\Users\JUNIOR\Google Drive\Maua\Aplicada2-Pic\labintegrado2014\Firmware\controlador PI\main.c
                     a718   0x00259c    program     extern C:\Users\JUNIOR\Google Drive\Maua\Aplicada2-Pic\labintegrado2014\Firmware\controlador PI\main.c
                     a719   0x00259e    program     extern C:\Users\JUNIOR\Google Drive\Maua\Aplicada2-Pic\labintegrado2014\Firmware\controlador PI\main.c
                      a72   0x002090    program     extern C:\Users\JUNIOR\Google Drive\Maua\Aplicada2-Pic\labintegrado2014\Firmware\controlador PI\main.c
                     a720   0x0025a0    program     extern C:\Users\JUNIOR\Google Drive\Maua\Aplicada2-Pic\labintegrado2014\Firmware\controlador PI\main.c
                     a721   0x0025a2    program     extern C:\Users\JUNIOR\Google Drive\Maua\Aplicada2-Pic\labintegrado2014\Firmware\controlador PI\main.c
                     a722   0x0025a4    program     extern C:\Users\JUNIOR\Google Drive\Maua\Aplicada2-Pic\labintegrado2014\Firmware\controlador PI\main.c
                     a723   0x0025a6    program     extern C:\Users\JUNIOR\Google Drive\Maua\Aplicada2-Pic\labintegrado2014\Firmware\controlador PI\main.c
                     a724   0x0025a8    program     extern C:\Users\JUNIOR\Google Drive\Maua\Aplicada2-Pic\labintegrado2014\Firmware\controlador PI\main.c
                     a725   0x0025aa    program     extern C:\Users\JUNIOR\Google Drive\Maua\Aplicada2-Pic\labintegrado2014\Firmware\controlador PI\main.c
                     a726   0x0025ac    program     extern C:\Users\JUNIOR\Google Drive\Maua\Aplicada2-Pic\labintegrado2014\Firmware\controlador PI\main.c
                     a727   0x0025ae    program     extern C:\Users\JUNIOR\Google Drive\Maua\Aplicada2-Pic\labintegrado2014\Firmware\controlador PI\main.c
                     a728   0x0025b0    program     extern C:\Users\JUNIOR\Google Drive\Maua\Aplicada2-Pic\labintegrado2014\Firmware\controlador PI\main.c
                     a729   0x0025b2    program     extern C:\Users\JUNIOR\Google Drive\Maua\Aplicada2-Pic\labintegrado2014\Firmware\controlador PI\main.c
                      a73   0x002092    program     extern C:\Users\JUNIOR\Google Drive\Maua\Aplicada2-Pic\labintegrado2014\Firmware\controlador PI\main.c
                     a730   0x0025b4    program     extern C:\Users\JUNIOR\Google Drive\Maua\Aplicada2-Pic\labintegrado2014\Firmware\controlador PI\main.c
                     a731   0x0025b6    program     extern C:\Users\JUNIOR\Google Drive\Maua\Aplicada2-Pic\labintegrado2014\Firmware\controlador PI\main.c
                     a732   0x0025b8    program     extern C:\Users\JUNIOR\Google Drive\Maua\Aplicada2-Pic\labintegrado2014\Firmware\controlador PI\main.c
                     a733   0x0025ba    program     extern C:\Users\JUNIOR\Google Drive\Maua\Aplicada2-Pic\labintegrado2014\Firmware\controlador PI\main.c
                     a734   0x0025bc    program     extern C:\Users\JUNIOR\Google Drive\Maua\Aplicada2-Pic\labintegrado2014\Firmware\controlador PI\main.c
                     a735   0x0025be    program     extern C:\Users\JUNIOR\Google Drive\Maua\Aplicada2-Pic\labintegrado2014\Firmware\controlador PI\main.c
                     a736   0x0025c0    program     extern C:\Users\JUNIOR\Google Drive\Maua\Aplicada2-Pic\labintegrado2014\Firmware\controlador PI\main.c
                     a737   0x0025c2    program     extern C:\Users\JUNIOR\Google Drive\Maua\Aplicada2-Pic\labintegrado2014\Firmware\controlador PI\main.c
                     a738   0x0025c4    program     extern C:\Users\JUNIOR\Google Drive\Maua\Aplicada2-Pic\labintegrado2014\Firmware\controlador PI\main.c
                     a739   0x0025c6    program     extern C:\Users\JUNIOR\Google Drive\Maua\Aplicada2-Pic\labintegrado2014\Firmware\controlador PI\main.c
                      a74   0x002094    program     extern C:\Users\JUNIOR\Google Drive\Maua\Aplicada2-Pic\labintegrado2014\Firmware\controlador PI\main.c
                     a740   0x0025c8    program     extern C:\Users\JUNIOR\Google Drive\Maua\Aplicada2-Pic\labintegrado2014\Firmware\controlador PI\main.c
                     a741   0x0025ca    program     extern C:\Users\JUNIOR\Google Drive\Maua\Aplicada2-Pic\labintegrado2014\Firmware\controlador PI\main.c
                     a742   0x0025cc    program     extern C:\Users\JUNIOR\Google Drive\Maua\Aplicada2-Pic\labintegrado2014\Firmware\controlador PI\main.c
                     a743   0x0025ce    program     extern C:\Users\JUNIOR\Google Drive\Maua\Aplicada2-Pic\labintegrado2014\Firmware\controlador PI\main.c
                     a744   0x0025d0    program     extern C:\Users\JUNIOR\Google Drive\Maua\Aplicada2-Pic\labintegrado2014\Firmware\controlador PI\main.c
                     a745   0x0025d2    program     extern C:\Users\JUNIOR\Google Drive\Maua\Aplicada2-Pic\labintegrado2014\Firmware\controlador PI\main.c
                     a746   0x0025d4    program     extern C:\Users\JUNIOR\Google Drive\Maua\Aplicada2-Pic\labintegrado2014\Firmware\controlador PI\main.c
                     a747   0x0025d6    program     extern C:\Users\JUNIOR\Google Drive\Maua\Aplicada2-Pic\labintegrado2014\Firmware\controlador PI\main.c
                     a748   0x0025d8    program     extern C:\Users\JUNIOR\Google Drive\Maua\Aplicada2-Pic\labintegrado2014\Firmware\controlador PI\main.c
                     a749   0x0025da    program     extern C:\Users\JUNIOR\Google Drive\Maua\Aplicada2-Pic\labintegrado2014\Firmware\controlador PI\main.c
                      a75   0x002096    program     extern C:\Users\JUNIOR\Google Drive\Maua\Aplicada2-Pic\labintegrado2014\Firmware\controlador PI\main.c
                     a750   0x0025dc    program     extern C:\Users\JUNIOR\Google Drive\Maua\Aplicada2-Pic\labintegrado2014\Firmware\controlador PI\main.c
                     a751   0x0025de    program     extern C:\Users\JUNIOR\Google Drive\Maua\Aplicada2-Pic\labintegrado2014\Firmware\controlador PI\main.c
                     a752   0x0025e0    program     extern C:\Users\JUNIOR\Google Drive\Maua\Aplicada2-Pic\labintegrado2014\Firmware\controlador PI\main.c
                     a753   0x0025e2    program     extern C:\Users\JUNIOR\Google Drive\Maua\Aplicada2-Pic\labintegrado2014\Firmware\controlador PI\main.c
                     a754   0x0025e4    program     extern C:\Users\JUNIOR\Google Drive\Maua\Aplicada2-Pic\labintegrado2014\Firmware\controlador PI\main.c
                     a755   0x0025e6    program     extern C:\Users\JUNIOR\Google Drive\Maua\Aplicada2-Pic\labintegrado2014\Firmware\controlador PI\main.c
                     a756   0x0025e8    program     extern C:\Users\JUNIOR\Google Drive\Maua\Aplicada2-Pic\labintegrado2014\Firmware\controlador PI\main.c
                     a757   0x0025ea    program     extern C:\Users\JUNIOR\Google Drive\Maua\Aplicada2-Pic\labintegrado2014\Firmware\controlador PI\main.c
                     a758   0x0025ec    program     extern C:\Users\JUNIOR\Google Drive\Maua\Aplicada2-Pic\labintegrado2014\Firmware\controlador PI\main.c
                     a759   0x0025ee    program     extern C:\Users\JUNIOR\Google Drive\Maua\Aplicada2-Pic\labintegrado2014\Firmware\controlador PI\main.c
                      a76   0x002098    program     extern C:\Users\JUNIOR\Google Drive\Maua\Aplicada2-Pic\labintegrado2014\Firmware\controlador PI\main.c
                     a760   0x0025f0    program     extern C:\Users\JUNIOR\Google Drive\Maua\Aplicada2-Pic\labintegrado2014\Firmware\controlador PI\main.c
                     a761   0x0025f2    program     extern C:\Users\JUNIOR\Google Drive\Maua\Aplicada2-Pic\labintegrado2014\Firmware\controlador PI\main.c
                     a762   0x0025f4    program     extern C:\Users\JUNIOR\Google Drive\Maua\Aplicada2-Pic\labintegrado2014\Firmware\controlador PI\main.c
                     a763   0x0025f6    program     extern C:\Users\JUNIOR\Google Drive\Maua\Aplicada2-Pic\labintegrado2014\Firmware\controlador PI\main.c
                     a764   0x0025f8    program     extern C:\Users\JUNIOR\Google Drive\Maua\Aplicada2-Pic\labintegrado2014\Firmware\controlador PI\main.c
                     a765   0x0025fa    program     extern C:\Users\JUNIOR\Google Drive\Maua\Aplicada2-Pic\labintegrado2014\Firmware\controlador PI\main.c
                     a766   0x0025fc    program     extern C:\Users\JUNIOR\Google Drive\Maua\Aplicada2-Pic\labintegrado2014\Firmware\controlador PI\main.c
                     a767   0x0025fe    program     extern C:\Users\JUNIOR\Google Drive\Maua\Aplicada2-Pic\labintegrado2014\Firmware\controlador PI\main.c
                     a768   0x002600    program     extern C:\Users\JUNIOR\Google Drive\Maua\Aplicada2-Pic\labintegrado2014\Firmware\controlador PI\main.c
                     a769   0x002602    program     extern C:\Users\JUNIOR\Google Drive\Maua\Aplicada2-Pic\labintegrado2014\Firmware\controlador PI\main.c
                      a77   0x00209a    program     extern C:\Users\JUNIOR\Google Drive\Maua\Aplicada2-Pic\labintegrado2014\Firmware\controlador PI\main.c
                     a770   0x002604    program     extern C:\Users\JUNIOR\Google Drive\Maua\Aplicada2-Pic\labintegrado2014\Firmware\controlador PI\main.c
                     a771   0x002606    program     extern C:\Users\JUNIOR\Google Drive\Maua\Aplicada2-Pic\labintegrado2014\Firmware\controlador PI\main.c
                     a772   0x002608    program     extern C:\Users\JUNIOR\Google Drive\Maua\Aplicada2-Pic\labintegrado2014\Firmware\controlador PI\main.c
                     a773   0x00260a    program     extern C:\Users\JUNIOR\Google Drive\Maua\Aplicada2-Pic\labintegrado2014\Firmware\controlador PI\main.c
                     a774   0x00260c    program     extern C:\Users\JUNIOR\Google Drive\Maua\Aplicada2-Pic\labintegrado2014\Firmware\controlador PI\main.c
                     a775   0x00260e    program     extern C:\Users\JUNIOR\Google Drive\Maua\Aplicada2-Pic\labintegrado2014\Firmware\controlador PI\main.c
                     a776   0x002610    program     extern C:\Users\JUNIOR\Google Drive\Maua\Aplicada2-Pic\labintegrado2014\Firmware\controlador PI\main.c
                     a777   0x002612    program     extern C:\Users\JUNIOR\Google Drive\Maua\Aplicada2-Pic\labintegrado2014\Firmware\controlador PI\main.c
                     a778   0x002614    program     extern C:\Users\JUNIOR\Google Drive\Maua\Aplicada2-Pic\labintegrado2014\Firmware\controlador PI\main.c
                     a779   0x002616    program     extern C:\Users\JUNIOR\Google Drive\Maua\Aplicada2-Pic\labintegrado2014\Firmware\controlador PI\main.c
                      a78   0x00209c    program     extern C:\Users\JUNIOR\Google Drive\Maua\Aplicada2-Pic\labintegrado2014\Firmware\controlador PI\main.c
                     a780   0x002618    program     extern C:\Users\JUNIOR\Google Drive\Maua\Aplicada2-Pic\labintegrado2014\Firmware\controlador PI\main.c
                     a781   0x00261a    program     extern C:\Users\JUNIOR\Google Drive\Maua\Aplicada2-Pic\labintegrado2014\Firmware\controlador PI\main.c
                     a782   0x00261c    program     extern C:\Users\JUNIOR\Google Drive\Maua\Aplicada2-Pic\labintegrado2014\Firmware\controlador PI\main.c
                     a783   0x00261e    program     extern C:\Users\JUNIOR\Google Drive\Maua\Aplicada2-Pic\labintegrado2014\Firmware\controlador PI\main.c
                     a784   0x002620    program     extern C:\Users\JUNIOR\Google Drive\Maua\Aplicada2-Pic\labintegrado2014\Firmware\controlador PI\main.c
                     a785   0x002622    program     extern C:\Users\JUNIOR\Google Drive\Maua\Aplicada2-Pic\labintegrado2014\Firmware\controlador PI\main.c
                     a786   0x002624    program     extern C:\Users\JUNIOR\Google Drive\Maua\Aplicada2-Pic\labintegrado2014\Firmware\controlador PI\main.c
                     a787   0x002626    program     extern C:\Users\JUNIOR\Google Drive\Maua\Aplicada2-Pic\labintegrado2014\Firmware\controlador PI\main.c
                     a788   0x002628    program     extern C:\Users\JUNIOR\Google Drive\Maua\Aplicada2-Pic\labintegrado2014\Firmware\controlador PI\main.c
                     a789   0x00262a    program     extern C:\Users\JUNIOR\Google Drive\Maua\Aplicada2-Pic\labintegrado2014\Firmware\controlador PI\main.c
                      a79   0x00209e    program     extern C:\Users\JUNIOR\Google Drive\Maua\Aplicada2-Pic\labintegrado2014\Firmware\controlador PI\main.c
                     a790   0x00262c    program     extern C:\Users\JUNIOR\Google Drive\Maua\Aplicada2-Pic\labintegrado2014\Firmware\controlador PI\main.c
                     a791   0x00262e    program     extern C:\Users\JUNIOR\Google Drive\Maua\Aplicada2-Pic\labintegrado2014\Firmware\controlador PI\main.c
                     a792   0x002630    program     extern C:\Users\JUNIOR\Google Drive\Maua\Aplicada2-Pic\labintegrado2014\Firmware\controlador PI\main.c
                     a793   0x002632    program     extern C:\Users\JUNIOR\Google Drive\Maua\Aplicada2-Pic\labintegrado2014\Firmware\controlador PI\main.c
                     a794   0x002634    program     extern C:\Users\JUNIOR\Google Drive\Maua\Aplicada2-Pic\labintegrado2014\Firmware\controlador PI\main.c
                     a795   0x002636    program     extern C:\Users\JUNIOR\Google Drive\Maua\Aplicada2-Pic\labintegrado2014\Firmware\controlador PI\main.c
                     a796   0x002638    program     extern C:\Users\JUNIOR\Google Drive\Maua\Aplicada2-Pic\labintegrado2014\Firmware\controlador PI\main.c
                     a797   0x00263a    program     extern C:\Users\JUNIOR\Google Drive\Maua\Aplicada2-Pic\labintegrado2014\Firmware\controlador PI\main.c
                     a798   0x00263c    program     extern C:\Users\JUNIOR\Google Drive\Maua\Aplicada2-Pic\labintegrado2014\Firmware\controlador PI\main.c
                     a799   0x00263e    program     extern C:\Users\JUNIOR\Google Drive\Maua\Aplicada2-Pic\labintegrado2014\Firmware\controlador PI\main.c
                       a8   0x002010    program     extern C:\Users\JUNIOR\Google Drive\Maua\Aplicada2-Pic\labintegrado2014\Firmware\controlador PI\main.c
                      a80   0x0020a0    program     extern C:\Users\JUNIOR\Google Drive\Maua\Aplicada2-Pic\labintegrado2014\Firmware\controlador PI\main.c
                     a800   0x002640    program     extern C:\Users\JUNIOR\Google Drive\Maua\Aplicada2-Pic\labintegrado2014\Firmware\controlador PI\main.c
                     a801   0x002642    program     extern C:\Users\JUNIOR\Google Drive\Maua\Aplicada2-Pic\labintegrado2014\Firmware\controlador PI\main.c
                     a802   0x002644    program     extern C:\Users\JUNIOR\Google Drive\Maua\Aplicada2-Pic\labintegrado2014\Firmware\controlador PI\main.c
                     a803   0x002646    program     extern C:\Users\JUNIOR\Google Drive\Maua\Aplicada2-Pic\labintegrado2014\Firmware\controlador PI\main.c
                     a804   0x002648    program     extern C:\Users\JUNIOR\Google Drive\Maua\Aplicada2-Pic\labintegrado2014\Firmware\controlador PI\main.c
                     a805   0x00264a    program     extern C:\Users\JUNIOR\Google Drive\Maua\Aplicada2-Pic\labintegrado2014\Firmware\controlador PI\main.c
                     a806   0x00264c    program     extern C:\Users\JUNIOR\Google Drive\Maua\Aplicada2-Pic\labintegrado2014\Firmware\controlador PI\main.c
                     a807   0x00264e    program     extern C:\Users\JUNIOR\Google Drive\Maua\Aplicada2-Pic\labintegrado2014\Firmware\controlador PI\main.c
                     a808   0x002650    program     extern C:\Users\JUNIOR\Google Drive\Maua\Aplicada2-Pic\labintegrado2014\Firmware\controlador PI\main.c
                     a809   0x002652    program     extern C:\Users\JUNIOR\Google Drive\Maua\Aplicada2-Pic\labintegrado2014\Firmware\controlador PI\main.c
                      a81   0x0020a2    program     extern C:\Users\JUNIOR\Google Drive\Maua\Aplicada2-Pic\labintegrado2014\Firmware\controlador PI\main.c
                     a810   0x002654    program     extern C:\Users\JUNIOR\Google Drive\Maua\Aplicada2-Pic\labintegrado2014\Firmware\controlador PI\main.c
                     a811   0x002656    program     extern C:\Users\JUNIOR\Google Drive\Maua\Aplicada2-Pic\labintegrado2014\Firmware\controlador PI\main.c
                     a812   0x002658    program     extern C:\Users\JUNIOR\Google Drive\Maua\Aplicada2-Pic\labintegrado2014\Firmware\controlador PI\main.c
                     a813   0x00265a    program     extern C:\Users\JUNIOR\Google Drive\Maua\Aplicada2-Pic\labintegrado2014\Firmware\controlador PI\main.c
                     a814   0x00265c    program     extern C:\Users\JUNIOR\Google Drive\Maua\Aplicada2-Pic\labintegrado2014\Firmware\controlador PI\main.c
                     a815   0x00265e    program     extern C:\Users\JUNIOR\Google Drive\Maua\Aplicada2-Pic\labintegrado2014\Firmware\controlador PI\main.c
                     a816   0x002660    program     extern C:\Users\JUNIOR\Google Drive\Maua\Aplicada2-Pic\labintegrado2014\Firmware\controlador PI\main.c
                     a817   0x002662    program     extern C:\Users\JUNIOR\Google Drive\Maua\Aplicada2-Pic\labintegrado2014\Firmware\controlador PI\main.c
                     a818   0x002664    program     extern C:\Users\JUNIOR\Google Drive\Maua\Aplicada2-Pic\labintegrado2014\Firmware\controlador PI\main.c
                     a819   0x002666    program     extern C:\Users\JUNIOR\Google Drive\Maua\Aplicada2-Pic\labintegrado2014\Firmware\controlador PI\main.c
                      a82   0x0020a4    program     extern C:\Users\JUNIOR\Google Drive\Maua\Aplicada2-Pic\labintegrado2014\Firmware\controlador PI\main.c
                     a820   0x002668    program     extern C:\Users\JUNIOR\Google Drive\Maua\Aplicada2-Pic\labintegrado2014\Firmware\controlador PI\main.c
                     a821   0x00266a    program     extern C:\Users\JUNIOR\Google Drive\Maua\Aplicada2-Pic\labintegrado2014\Firmware\controlador PI\main.c
                     a822   0x00266c    program     extern C:\Users\JUNIOR\Google Drive\Maua\Aplicada2-Pic\labintegrado2014\Firmware\controlador PI\main.c
                     a823   0x00266e    program     extern C:\Users\JUNIOR\Google Drive\Maua\Aplicada2-Pic\labintegrado2014\Firmware\controlador PI\main.c
                     a824   0x002670    program     extern C:\Users\JUNIOR\Google Drive\Maua\Aplicada2-Pic\labintegrado2014\Firmware\controlador PI\main.c
                     a825   0x002672    program     extern C:\Users\JUNIOR\Google Drive\Maua\Aplicada2-Pic\labintegrado2014\Firmware\controlador PI\main.c
                     a826   0x002674    program     extern C:\Users\JUNIOR\Google Drive\Maua\Aplicada2-Pic\labintegrado2014\Firmware\controlador PI\main.c
                     a827   0x002676    program     extern C:\Users\JUNIOR\Google Drive\Maua\Aplicada2-Pic\labintegrado2014\Firmware\controlador PI\main.c
                     a828   0x002678    program     extern C:\Users\JUNIOR\Google Drive\Maua\Aplicada2-Pic\labintegrado2014\Firmware\controlador PI\main.c
                     a829   0x00267a    program     extern C:\Users\JUNIOR\Google Drive\Maua\Aplicada2-Pic\labintegrado2014\Firmware\controlador PI\main.c
                      a83   0x0020a6    program     extern C:\Users\JUNIOR\Google Drive\Maua\Aplicada2-Pic\labintegrado2014\Firmware\controlador PI\main.c
                     a830   0x00267c    program     extern C:\Users\JUNIOR\Google Drive\Maua\Aplicada2-Pic\labintegrado2014\Firmware\controlador PI\main.c
                     a831   0x00267e    program     extern C:\Users\JUNIOR\Google Drive\Maua\Aplicada2-Pic\labintegrado2014\Firmware\controlador PI\main.c
                     a832   0x002680    program     extern C:\Users\JUNIOR\Google Drive\Maua\Aplicada2-Pic\labintegrado2014\Firmware\controlador PI\main.c
                     a833   0x002682    program     extern C:\Users\JUNIOR\Google Drive\Maua\Aplicada2-Pic\labintegrado2014\Firmware\controlador PI\main.c
                     a834   0x002684    program     extern C:\Users\JUNIOR\Google Drive\Maua\Aplicada2-Pic\labintegrado2014\Firmware\controlador PI\main.c
                     a835   0x002686    program     extern C:\Users\JUNIOR\Google Drive\Maua\Aplicada2-Pic\labintegrado2014\Firmware\controlador PI\main.c
                     a836   0x002688    program     extern C:\Users\JUNIOR\Google Drive\Maua\Aplicada2-Pic\labintegrado2014\Firmware\controlador PI\main.c
                     a837   0x00268a    program     extern C:\Users\JUNIOR\Google Drive\Maua\Aplicada2-Pic\labintegrado2014\Firmware\controlador PI\main.c
                     a838   0x00268c    program     extern C:\Users\JUNIOR\Google Drive\Maua\Aplicada2-Pic\labintegrado2014\Firmware\controlador PI\main.c
                     a839   0x00268e    program     extern C:\Users\JUNIOR\Google Drive\Maua\Aplicada2-Pic\labintegrado2014\Firmware\controlador PI\main.c
                      a84   0x0020a8    program     extern C:\Users\JUNIOR\Google Drive\Maua\Aplicada2-Pic\labintegrado2014\Firmware\controlador PI\main.c
                     a840   0x002690    program     extern C:\Users\JUNIOR\Google Drive\Maua\Aplicada2-Pic\labintegrado2014\Firmware\controlador PI\main.c
                     a841   0x002692    program     extern C:\Users\JUNIOR\Google Drive\Maua\Aplicada2-Pic\labintegrado2014\Firmware\controlador PI\main.c
                     a842   0x002694    program     extern C:\Users\JUNIOR\Google Drive\Maua\Aplicada2-Pic\labintegrado2014\Firmware\controlador PI\main.c
                     a843   0x002696    program     extern C:\Users\JUNIOR\Google Drive\Maua\Aplicada2-Pic\labintegrado2014\Firmware\controlador PI\main.c
                     a844   0x002698    program     extern C:\Users\JUNIOR\Google Drive\Maua\Aplicada2-Pic\labintegrado2014\Firmware\controlador PI\main.c
                     a845   0x00269a    program     extern C:\Users\JUNIOR\Google Drive\Maua\Aplicada2-Pic\labintegrado2014\Firmware\controlador PI\main.c
                     a846   0x00269c    program     extern C:\Users\JUNIOR\Google Drive\Maua\Aplicada2-Pic\labintegrado2014\Firmware\controlador PI\main.c
                     a847   0x00269e    program     extern C:\Users\JUNIOR\Google Drive\Maua\Aplicada2-Pic\labintegrado2014\Firmware\controlador PI\main.c
                     a848   0x0026a0    program     extern C:\Users\JUNIOR\Google Drive\Maua\Aplicada2-Pic\labintegrado2014\Firmware\controlador PI\main.c
                     a849   0x0026a2    program     extern C:\Users\JUNIOR\Google Drive\Maua\Aplicada2-Pic\labintegrado2014\Firmware\controlador PI\main.c
                      a85   0x0020aa    program     extern C:\Users\JUNIOR\Google Drive\Maua\Aplicada2-Pic\labintegrado2014\Firmware\controlador PI\main.c
                     a850   0x0026a4    program     extern C:\Users\JUNIOR\Google Drive\Maua\Aplicada2-Pic\labintegrado2014\Firmware\controlador PI\main.c
                     a851   0x0026a6    program     extern C:\Users\JUNIOR\Google Drive\Maua\Aplicada2-Pic\labintegrado2014\Firmware\controlador PI\main.c
                     a852   0x0026a8    program     extern C:\Users\JUNIOR\Google Drive\Maua\Aplicada2-Pic\labintegrado2014\Firmware\controlador PI\main.c
                     a853   0x0026aa    program     extern C:\Users\JUNIOR\Google Drive\Maua\Aplicada2-Pic\labintegrado2014\Firmware\controlador PI\main.c
                     a854   0x0026ac    program     extern C:\Users\JUNIOR\Google Drive\Maua\Aplicada2-Pic\labintegrado2014\Firmware\controlador PI\main.c
                     a855   0x0026ae    program     extern C:\Users\JUNIOR\Google Drive\Maua\Aplicada2-Pic\labintegrado2014\Firmware\controlador PI\main.c
                     a856   0x0026b0    program     extern C:\Users\JUNIOR\Google Drive\Maua\Aplicada2-Pic\labintegrado2014\Firmware\controlador PI\main.c
                     a857   0x0026b2    program     extern C:\Users\JUNIOR\Google Drive\Maua\Aplicada2-Pic\labintegrado2014\Firmware\controlador PI\main.c
                     a858   0x0026b4    program     extern C:\Users\JUNIOR\Google Drive\Maua\Aplicada2-Pic\labintegrado2014\Firmware\controlador PI\main.c
                     a859   0x0026b6    program     extern C:\Users\JUNIOR\Google Drive\Maua\Aplicada2-Pic\labintegrado2014\Firmware\controlador PI\main.c
                      a86   0x0020ac    program     extern C:\Users\JUNIOR\Google Drive\Maua\Aplicada2-Pic\labintegrado2014\Firmware\controlador PI\main.c
                     a860   0x0026b8    program     extern C:\Users\JUNIOR\Google Drive\Maua\Aplicada2-Pic\labintegrado2014\Firmware\controlador PI\main.c
                     a861   0x0026ba    program     extern C:\Users\JUNIOR\Google Drive\Maua\Aplicada2-Pic\labintegrado2014\Firmware\controlador PI\main.c
                     a862   0x0026bc    program     extern C:\Users\JUNIOR\Google Drive\Maua\Aplicada2-Pic\labintegrado2014\Firmware\controlador PI\main.c
                     a863   0x0026be    program     extern C:\Users\JUNIOR\Google Drive\Maua\Aplicada2-Pic\labintegrado2014\Firmware\controlador PI\main.c
                     a864   0x0026c0    program     extern C:\Users\JUNIOR\Google Drive\Maua\Aplicada2-Pic\labintegrado2014\Firmware\controlador PI\main.c
                     a865   0x0026c2    program     extern C:\Users\JUNIOR\Google Drive\Maua\Aplicada2-Pic\labintegrado2014\Firmware\controlador PI\main.c
                     a866   0x0026c4    program     extern C:\Users\JUNIOR\Google Drive\Maua\Aplicada2-Pic\labintegrado2014\Firmware\controlador PI\main.c
                     a867   0x0026c6    program     extern C:\Users\JUNIOR\Google Drive\Maua\Aplicada2-Pic\labintegrado2014\Firmware\controlador PI\main.c
                     a868   0x0026c8    program     extern C:\Users\JUNIOR\Google Drive\Maua\Aplicada2-Pic\labintegrado2014\Firmware\controlador PI\main.c
                     a869   0x0026ca    program     extern C:\Users\JUNIOR\Google Drive\Maua\Aplicada2-Pic\labintegrado2014\Firmware\controlador PI\main.c
                      a87   0x0020ae    program     extern C:\Users\JUNIOR\Google Drive\Maua\Aplicada2-Pic\labintegrado2014\Firmware\controlador PI\main.c
                     a870   0x0026cc    program     extern C:\Users\JUNIOR\Google Drive\Maua\Aplicada2-Pic\labintegrado2014\Firmware\controlador PI\main.c
                     a871   0x0026ce    program     extern C:\Users\JUNIOR\Google Drive\Maua\Aplicada2-Pic\labintegrado2014\Firmware\controlador PI\main.c
                     a872   0x0026d0    program     extern C:\Users\JUNIOR\Google Drive\Maua\Aplicada2-Pic\labintegrado2014\Firmware\controlador PI\main.c
                     a873   0x0026d2    program     extern C:\Users\JUNIOR\Google Drive\Maua\Aplicada2-Pic\labintegrado2014\Firmware\controlador PI\main.c
                     a874   0x0026d4    program     extern C:\Users\JUNIOR\Google Drive\Maua\Aplicada2-Pic\labintegrado2014\Firmware\controlador PI\main.c
                     a875   0x0026d6    program     extern C:\Users\JUNIOR\Google Drive\Maua\Aplicada2-Pic\labintegrado2014\Firmware\controlador PI\main.c
                     a876   0x0026d8    program     extern C:\Users\JUNIOR\Google Drive\Maua\Aplicada2-Pic\labintegrado2014\Firmware\controlador PI\main.c
                     a877   0x0026da    program     extern C:\Users\JUNIOR\Google Drive\Maua\Aplicada2-Pic\labintegrado2014\Firmware\controlador PI\main.c
                     a878   0x0026dc    program     extern C:\Users\JUNIOR\Google Drive\Maua\Aplicada2-Pic\labintegrado2014\Firmware\controlador PI\main.c
                     a879   0x0026de    program     extern C:\Users\JUNIOR\Google Drive\Maua\Aplicada2-Pic\labintegrado2014\Firmware\controlador PI\main.c
                      a88   0x0020b0    program     extern C:\Users\JUNIOR\Google Drive\Maua\Aplicada2-Pic\labintegrado2014\Firmware\controlador PI\main.c
                     a880   0x0026e0    program     extern C:\Users\JUNIOR\Google Drive\Maua\Aplicada2-Pic\labintegrado2014\Firmware\controlador PI\main.c
                     a881   0x0026e2    program     extern C:\Users\JUNIOR\Google Drive\Maua\Aplicada2-Pic\labintegrado2014\Firmware\controlador PI\main.c
                     a882   0x0026e4    program     extern C:\Users\JUNIOR\Google Drive\Maua\Aplicada2-Pic\labintegrado2014\Firmware\controlador PI\main.c
                     a883   0x0026e6    program     extern C:\Users\JUNIOR\Google Drive\Maua\Aplicada2-Pic\labintegrado2014\Firmware\controlador PI\main.c
                     a884   0x0026e8    program     extern C:\Users\JUNIOR\Google Drive\Maua\Aplicada2-Pic\labintegrado2014\Firmware\controlador PI\main.c
                     a885   0x0026ea    program     extern C:\Users\JUNIOR\Google Drive\Maua\Aplicada2-Pic\labintegrado2014\Firmware\controlador PI\main.c
                     a886   0x0026ec    program     extern C:\Users\JUNIOR\Google Drive\Maua\Aplicada2-Pic\labintegrado2014\Firmware\controlador PI\main.c
                     a887   0x0026ee    program     extern C:\Users\JUNIOR\Google Drive\Maua\Aplicada2-Pic\labintegrado2014\Firmware\controlador PI\main.c
                     a888   0x0026f0    program     extern C:\Users\JUNIOR\Google Drive\Maua\Aplicada2-Pic\labintegrado2014\Firmware\controlador PI\main.c
                     a889   0x0026f2    program     extern C:\Users\JUNIOR\Google Drive\Maua\Aplicada2-Pic\labintegrado2014\Firmware\controlador PI\main.c
                      a89   0x0020b2    program     extern C:\Users\JUNIOR\Google Drive\Maua\Aplicada2-Pic\labintegrado2014\Firmware\controlador PI\main.c
                     a890   0x0026f4    program     extern C:\Users\JUNIOR\Google Drive\Maua\Aplicada2-Pic\labintegrado2014\Firmware\controlador PI\main.c
                     a891   0x0026f6    program     extern C:\Users\JUNIOR\Google Drive\Maua\Aplicada2-Pic\labintegrado2014\Firmware\controlador PI\main.c
                     a892   0x0026f8    program     extern C:\Users\JUNIOR\Google Drive\Maua\Aplicada2-Pic\labintegrado2014\Firmware\controlador PI\main.c
                     a893   0x0026fa    program     extern C:\Users\JUNIOR\Google Drive\Maua\Aplicada2-Pic\labintegrado2014\Firmware\controlador PI\main.c
                     a894   0x0026fc    program     extern C:\Users\JUNIOR\Google Drive\Maua\Aplicada2-Pic\labintegrado2014\Firmware\controlador PI\main.c
                     a895   0x0026fe    program     extern C:\Users\JUNIOR\Google Drive\Maua\Aplicada2-Pic\labintegrado2014\Firmware\controlador PI\main.c
                     a896   0x002700    program     extern C:\Users\JUNIOR\Google Drive\Maua\Aplicada2-Pic\labintegrado2014\Firmware\controlador PI\main.c
                     a897   0x002702    program     extern C:\Users\JUNIOR\Google Drive\Maua\Aplicada2-Pic\labintegrado2014\Firmware\controlador PI\main.c
                     a898   0x002704    program     extern C:\Users\JUNIOR\Google Drive\Maua\Aplicada2-Pic\labintegrado2014\Firmware\controlador PI\main.c
                     a899   0x002706    program     extern C:\Users\JUNIOR\Google Drive\Maua\Aplicada2-Pic\labintegrado2014\Firmware\controlador PI\main.c
                       a9   0x002012    program     extern C:\Users\JUNIOR\Google Drive\Maua\Aplicada2-Pic\labintegrado2014\Firmware\controlador PI\main.c
                      a90   0x0020b4    program     extern C:\Users\JUNIOR\Google Drive\Maua\Aplicada2-Pic\labintegrado2014\Firmware\controlador PI\main.c
                     a900   0x002708    program     extern C:\Users\JUNIOR\Google Drive\Maua\Aplicada2-Pic\labintegrado2014\Firmware\controlador PI\main.c
                     a901   0x00270a    program     extern C:\Users\JUNIOR\Google Drive\Maua\Aplicada2-Pic\labintegrado2014\Firmware\controlador PI\main.c
                     a902   0x00270c    program     extern C:\Users\JUNIOR\Google Drive\Maua\Aplicada2-Pic\labintegrado2014\Firmware\controlador PI\main.c
                     a903   0x00270e    program     extern C:\Users\JUNIOR\Google Drive\Maua\Aplicada2-Pic\labintegrado2014\Firmware\controlador PI\main.c
                     a904   0x002710    program     extern C:\Users\JUNIOR\Google Drive\Maua\Aplicada2-Pic\labintegrado2014\Firmware\controlador PI\main.c
                     a905   0x002712    program     extern C:\Users\JUNIOR\Google Drive\Maua\Aplicada2-Pic\labintegrado2014\Firmware\controlador PI\main.c
                     a906   0x002714    program     extern C:\Users\JUNIOR\Google Drive\Maua\Aplicada2-Pic\labintegrado2014\Firmware\controlador PI\main.c
                     a907   0x002716    program     extern C:\Users\JUNIOR\Google Drive\Maua\Aplicada2-Pic\labintegrado2014\Firmware\controlador PI\main.c
                     a908   0x002718    program     extern C:\Users\JUNIOR\Google Drive\Maua\Aplicada2-Pic\labintegrado2014\Firmware\controlador PI\main.c
                     a909   0x00271a    program     extern C:\Users\JUNIOR\Google Drive\Maua\Aplicada2-Pic\labintegrado2014\Firmware\controlador PI\main.c
                      a91   0x0020b6    program     extern C:\Users\JUNIOR\Google Drive\Maua\Aplicada2-Pic\labintegrado2014\Firmware\controlador PI\main.c
                     a910   0x00271c    program     extern C:\Users\JUNIOR\Google Drive\Maua\Aplicada2-Pic\labintegrado2014\Firmware\controlador PI\main.c
                     a911   0x00271e    program     extern C:\Users\JUNIOR\Google Drive\Maua\Aplicada2-Pic\labintegrado2014\Firmware\controlador PI\main.c
                     a912   0x002720    program     extern C:\Users\JUNIOR\Google Drive\Maua\Aplicada2-Pic\labintegrado2014\Firmware\controlador PI\main.c
                     a913   0x002722    program     extern C:\Users\JUNIOR\Google Drive\Maua\Aplicada2-Pic\labintegrado2014\Firmware\controlador PI\main.c
                     a914   0x002724    program     extern C:\Users\JUNIOR\Google Drive\Maua\Aplicada2-Pic\labintegrado2014\Firmware\controlador PI\main.c
                     a915   0x002726    program     extern C:\Users\JUNIOR\Google Drive\Maua\Aplicada2-Pic\labintegrado2014\Firmware\controlador PI\main.c
                     a916   0x002728    program     extern C:\Users\JUNIOR\Google Drive\Maua\Aplicada2-Pic\labintegrado2014\Firmware\controlador PI\main.c
                     a917   0x00272a    program     extern C:\Users\JUNIOR\Google Drive\Maua\Aplicada2-Pic\labintegrado2014\Firmware\controlador PI\main.c
                     a918   0x00272c    program     extern C:\Users\JUNIOR\Google Drive\Maua\Aplicada2-Pic\labintegrado2014\Firmware\controlador PI\main.c
                     a919   0x00272e    program     extern C:\Users\JUNIOR\Google Drive\Maua\Aplicada2-Pic\labintegrado2014\Firmware\controlador PI\main.c
                      a92   0x0020b8    program     extern C:\Users\JUNIOR\Google Drive\Maua\Aplicada2-Pic\labintegrado2014\Firmware\controlador PI\main.c
                     a920   0x002730    program     extern C:\Users\JUNIOR\Google Drive\Maua\Aplicada2-Pic\labintegrado2014\Firmware\controlador PI\main.c
                     a921   0x002732    program     extern C:\Users\JUNIOR\Google Drive\Maua\Aplicada2-Pic\labintegrado2014\Firmware\controlador PI\main.c
                     a922   0x002734    program     extern C:\Users\JUNIOR\Google Drive\Maua\Aplicada2-Pic\labintegrado2014\Firmware\controlador PI\main.c
                     a923   0x002736    program     extern C:\Users\JUNIOR\Google Drive\Maua\Aplicada2-Pic\labintegrado2014\Firmware\controlador PI\main.c
                     a924   0x002738    program     extern C:\Users\JUNIOR\Google Drive\Maua\Aplicada2-Pic\labintegrado2014\Firmware\controlador PI\main.c
                     a925   0x00273a    program     extern C:\Users\JUNIOR\Google Drive\Maua\Aplicada2-Pic\labintegrado2014\Firmware\controlador PI\main.c
                     a926   0x00273c    program     extern C:\Users\JUNIOR\Google Drive\Maua\Aplicada2-Pic\labintegrado2014\Firmware\controlador PI\main.c
                     a927   0x00273e    program     extern C:\Users\JUNIOR\Google Drive\Maua\Aplicada2-Pic\labintegrado2014\Firmware\controlador PI\main.c
                     a928   0x002740    program     extern C:\Users\JUNIOR\Google Drive\Maua\Aplicada2-Pic\labintegrado2014\Firmware\controlador PI\main.c
                     a929   0x002742    program     extern C:\Users\JUNIOR\Google Drive\Maua\Aplicada2-Pic\labintegrado2014\Firmware\controlador PI\main.c
                      a93   0x0020ba    program     extern C:\Users\JUNIOR\Google Drive\Maua\Aplicada2-Pic\labintegrado2014\Firmware\controlador PI\main.c
                     a930   0x002744    program     extern C:\Users\JUNIOR\Google Drive\Maua\Aplicada2-Pic\labintegrado2014\Firmware\controlador PI\main.c
                     a931   0x002746    program     extern C:\Users\JUNIOR\Google Drive\Maua\Aplicada2-Pic\labintegrado2014\Firmware\controlador PI\main.c
                     a932   0x002748    program     extern C:\Users\JUNIOR\Google Drive\Maua\Aplicada2-Pic\labintegrado2014\Firmware\controlador PI\main.c
                     a933   0x00274a    program     extern C:\Users\JUNIOR\Google Drive\Maua\Aplicada2-Pic\labintegrado2014\Firmware\controlador PI\main.c
                     a934   0x00274c    program     extern C:\Users\JUNIOR\Google Drive\Maua\Aplicada2-Pic\labintegrado2014\Firmware\controlador PI\main.c
                     a935   0x00274e    program     extern C:\Users\JUNIOR\Google Drive\Maua\Aplicada2-Pic\labintegrado2014\Firmware\controlador PI\main.c
                     a936   0x002750    program     extern C:\Users\JUNIOR\Google Drive\Maua\Aplicada2-Pic\labintegrado2014\Firmware\controlador PI\main.c
                     a937   0x002752    program     extern C:\Users\JUNIOR\Google Drive\Maua\Aplicada2-Pic\labintegrado2014\Firmware\controlador PI\main.c
                     a938   0x002754    program     extern C:\Users\JUNIOR\Google Drive\Maua\Aplicada2-Pic\labintegrado2014\Firmware\controlador PI\main.c
                     a939   0x002756    program     extern C:\Users\JUNIOR\Google Drive\Maua\Aplicada2-Pic\labintegrado2014\Firmware\controlador PI\main.c
                      a94   0x0020bc    program     extern C:\Users\JUNIOR\Google Drive\Maua\Aplicada2-Pic\labintegrado2014\Firmware\controlador PI\main.c
                     a940   0x002758    program     extern C:\Users\JUNIOR\Google Drive\Maua\Aplicada2-Pic\labintegrado2014\Firmware\controlador PI\main.c
                     a941   0x00275a    program     extern C:\Users\JUNIOR\Google Drive\Maua\Aplicada2-Pic\labintegrado2014\Firmware\controlador PI\main.c
                     a942   0x00275c    program     extern C:\Users\JUNIOR\Google Drive\Maua\Aplicada2-Pic\labintegrado2014\Firmware\controlador PI\main.c
                     a943   0x00275e    program     extern C:\Users\JUNIOR\Google Drive\Maua\Aplicada2-Pic\labintegrado2014\Firmware\controlador PI\main.c
                     a944   0x002760    program     extern C:\Users\JUNIOR\Google Drive\Maua\Aplicada2-Pic\labintegrado2014\Firmware\controlador PI\main.c
                     a945   0x002762    program     extern C:\Users\JUNIOR\Google Drive\Maua\Aplicada2-Pic\labintegrado2014\Firmware\controlador PI\main.c
                     a946   0x002764    program     extern C:\Users\JUNIOR\Google Drive\Maua\Aplicada2-Pic\labintegrado2014\Firmware\controlador PI\main.c
                     a947   0x002766    program     extern C:\Users\JUNIOR\Google Drive\Maua\Aplicada2-Pic\labintegrado2014\Firmware\controlador PI\main.c
                     a948   0x002768    program     extern C:\Users\JUNIOR\Google Drive\Maua\Aplicada2-Pic\labintegrado2014\Firmware\controlador PI\main.c
                     a949   0x00276a    program     extern C:\Users\JUNIOR\Google Drive\Maua\Aplicada2-Pic\labintegrado2014\Firmware\controlador PI\main.c
                      a95   0x0020be    program     extern C:\Users\JUNIOR\Google Drive\Maua\Aplicada2-Pic\labintegrado2014\Firmware\controlador PI\main.c
                     a950   0x00276c    program     extern C:\Users\JUNIOR\Google Drive\Maua\Aplicada2-Pic\labintegrado2014\Firmware\controlador PI\main.c
                     a951   0x00276e    program     extern C:\Users\JUNIOR\Google Drive\Maua\Aplicada2-Pic\labintegrado2014\Firmware\controlador PI\main.c
                     a952   0x002770    program     extern C:\Users\JUNIOR\Google Drive\Maua\Aplicada2-Pic\labintegrado2014\Firmware\controlador PI\main.c
                     a953   0x002772    program     extern C:\Users\JUNIOR\Google Drive\Maua\Aplicada2-Pic\labintegrado2014\Firmware\controlador PI\main.c
                     a954   0x002774    program     extern C:\Users\JUNIOR\Google Drive\Maua\Aplicada2-Pic\labintegrado2014\Firmware\controlador PI\main.c
                     a955   0x002776    program     extern C:\Users\JUNIOR\Google Drive\Maua\Aplicada2-Pic\labintegrado2014\Firmware\controlador PI\main.c
                     a956   0x002778    program     extern C:\Users\JUNIOR\Google Drive\Maua\Aplicada2-Pic\labintegrado2014\Firmware\controlador PI\main.c
                     a957   0x00277a    program     extern C:\Users\JUNIOR\Google Drive\Maua\Aplicada2-Pic\labintegrado2014\Firmware\controlador PI\main.c
                     a958   0x00277c    program     extern C:\Users\JUNIOR\Google Drive\Maua\Aplicada2-Pic\labintegrado2014\Firmware\controlador PI\main.c
                     a959   0x00277e    program     extern C:\Users\JUNIOR\Google Drive\Maua\Aplicada2-Pic\labintegrado2014\Firmware\controlador PI\main.c
                      a96   0x0020c0    program     extern C:\Users\JUNIOR\Google Drive\Maua\Aplicada2-Pic\labintegrado2014\Firmware\controlador PI\main.c
                     a960   0x002780    program     extern C:\Users\JUNIOR\Google Drive\Maua\Aplicada2-Pic\labintegrado2014\Firmware\controlador PI\main.c
                     a961   0x002782    program     extern C:\Users\JUNIOR\Google Drive\Maua\Aplicada2-Pic\labintegrado2014\Firmware\controlador PI\main.c
                     a962   0x002784    program     extern C:\Users\JUNIOR\Google Drive\Maua\Aplicada2-Pic\labintegrado2014\Firmware\controlador PI\main.c
                     a963   0x002786    program     extern C:\Users\JUNIOR\Google Drive\Maua\Aplicada2-Pic\labintegrado2014\Firmware\controlador PI\main.c
                     a964   0x002788    program     extern C:\Users\JUNIOR\Google Drive\Maua\Aplicada2-Pic\labintegrado2014\Firmware\controlador PI\main.c
                     a965   0x00278a    program     extern C:\Users\JUNIOR\Google Drive\Maua\Aplicada2-Pic\labintegrado2014\Firmware\controlador PI\main.c
                     a966   0x00278c    program     extern C:\Users\JUNIOR\Google Drive\Maua\Aplicada2-Pic\labintegrado2014\Firmware\controlador PI\main.c
                     a967   0x00278e    program     extern C:\Users\JUNIOR\Google Drive\Maua\Aplicada2-Pic\labintegrado2014\Firmware\controlador PI\main.c
                     a968   0x002790    program     extern C:\Users\JUNIOR\Google Drive\Maua\Aplicada2-Pic\labintegrado2014\Firmware\controlador PI\main.c
                     a969   0x002792    program     extern C:\Users\JUNIOR\Google Drive\Maua\Aplicada2-Pic\labintegrado2014\Firmware\controlador PI\main.c
                      a97   0x0020c2    program     extern C:\Users\JUNIOR\Google Drive\Maua\Aplicada2-Pic\labintegrado2014\Firmware\controlador PI\main.c
                     a970   0x002794    program     extern C:\Users\JUNIOR\Google Drive\Maua\Aplicada2-Pic\labintegrado2014\Firmware\controlador PI\main.c
                     a971   0x002796    program     extern C:\Users\JUNIOR\Google Drive\Maua\Aplicada2-Pic\labintegrado2014\Firmware\controlador PI\main.c
                     a972   0x002798    program     extern C:\Users\JUNIOR\Google Drive\Maua\Aplicada2-Pic\labintegrado2014\Firmware\controlador PI\main.c
                     a973   0x00279a    program     extern C:\Users\JUNIOR\Google Drive\Maua\Aplicada2-Pic\labintegrado2014\Firmware\controlador PI\main.c
                     a974   0x00279c    program     extern C:\Users\JUNIOR\Google Drive\Maua\Aplicada2-Pic\labintegrado2014\Firmware\controlador PI\main.c
                     a975   0x00279e    program     extern C:\Users\JUNIOR\Google Drive\Maua\Aplicada2-Pic\labintegrado2014\Firmware\controlador PI\main.c
                     a976   0x0027a0    program     extern C:\Users\JUNIOR\Google Drive\Maua\Aplicada2-Pic\labintegrado2014\Firmware\controlador PI\main.c
                     a977   0x0027a2    program     extern C:\Users\JUNIOR\Google Drive\Maua\Aplicada2-Pic\labintegrado2014\Firmware\controlador PI\main.c
                     a978   0x0027a4    program     extern C:\Users\JUNIOR\Google Drive\Maua\Aplicada2-Pic\labintegrado2014\Firmware\controlador PI\main.c
                     a979   0x0027a6    program     extern C:\Users\JUNIOR\Google Drive\Maua\Aplicada2-Pic\labintegrado2014\Firmware\controlador PI\main.c
                      a98   0x0020c4    program     extern C:\Users\JUNIOR\Google Drive\Maua\Aplicada2-Pic\labintegrado2014\Firmware\controlador PI\main.c
                     a980   0x0027a8    program     extern C:\Users\JUNIOR\Google Drive\Maua\Aplicada2-Pic\labintegrado2014\Firmware\controlador PI\main.c
                     a981   0x0027aa    program     extern C:\Users\JUNIOR\Google Drive\Maua\Aplicada2-Pic\labintegrado2014\Firmware\controlador PI\main.c
                     a982   0x0027ac    program     extern C:\Users\JUNIOR\Google Drive\Maua\Aplicada2-Pic\labintegrado2014\Firmware\controlador PI\main.c
                     a983   0x0027ae    program     extern C:\Users\JUNIOR\Google Drive\Maua\Aplicada2-Pic\labintegrado2014\Firmware\controlador PI\main.c
                     a984   0x0027b0    program     extern C:\Users\JUNIOR\Google Drive\Maua\Aplicada2-Pic\labintegrado2014\Firmware\controlador PI\main.c
                     a985   0x0027b2    program     extern C:\Users\JUNIOR\Google Drive\Maua\Aplicada2-Pic\labintegrado2014\Firmware\controlador PI\main.c
                     a986   0x0027b4    program     extern C:\Users\JUNIOR\Google Drive\Maua\Aplicada2-Pic\labintegrado2014\Firmware\controlador PI\main.c
                     a987   0x0027b6    program     extern C:\Users\JUNIOR\Google Drive\Maua\Aplicada2-Pic\labintegrado2014\Firmware\controlador PI\main.c
                     a988   0x0027b8    program     extern C:\Users\JUNIOR\Google Drive\Maua\Aplicada2-Pic\labintegrado2014\Firmware\controlador PI\main.c
                     a989   0x0027ba    program     extern C:\Users\JUNIOR\Google Drive\Maua\Aplicada2-Pic\labintegrado2014\Firmware\controlador PI\main.c
                      a99   0x0020c6    program     extern C:\Users\JUNIOR\Google Drive\Maua\Aplicada2-Pic\labintegrado2014\Firmware\controlador PI\main.c
                     a990   0x0027bc    program     extern C:\Users\JUNIOR\Google Drive\Maua\Aplicada2-Pic\labintegrado2014\Firmware\controlador PI\main.c
                     a991   0x0027be    program     extern C:\Users\JUNIOR\Google Drive\Maua\Aplicada2-Pic\labintegrado2014\Firmware\controlador PI\main.c
                     a992   0x0027c0    program     extern C:\Users\JUNIOR\Google Drive\Maua\Aplicada2-Pic\labintegrado2014\Firmware\controlador PI\main.c
                     a993   0x0027c2    program     extern C:\Users\JUNIOR\Google Drive\Maua\Aplicada2-Pic\labintegrado2014\Firmware\controlador PI\main.c
                     a994   0x0027c4    program     extern C:\Users\JUNIOR\Google Drive\Maua\Aplicada2-Pic\labintegrado2014\Firmware\controlador PI\main.c
                     a995   0x0027c6    program     extern C:\Users\JUNIOR\Google Drive\Maua\Aplicada2-Pic\labintegrado2014\Firmware\controlador PI\main.c
                     a996   0x0027c8    program     extern C:\Users\JUNIOR\Google Drive\Maua\Aplicada2-Pic\labintegrado2014\Firmware\controlador PI\main.c
                     a997   0x0027ca    program     extern C:\Users\JUNIOR\Google Drive\Maua\Aplicada2-Pic\labintegrado2014\Firmware\controlador PI\main.c
                     a998   0x0027cc    program     extern C:\Users\JUNIOR\Google Drive\Maua\Aplicada2-Pic\labintegrado2014\Firmware\controlador PI\main.c
                     a999   0x0027ce    program     extern C:\Users\JUNIOR\Google Drive\Maua\Aplicada2-Pic\labintegrado2014\Firmware\controlador PI\main.c
                      as0   0x002000    program     extern C:\Users\JUNIOR\Google Drive\Maua\Aplicada2-Pic\labintegrado2014\Firmware\controlador PI\main.c
                compare_l   0x000f2a    program     static E:\3.46\pic18-lt\cxx-framework\src\traditional\proc\p18f4520.asm
                copy_loop   0x000c82    program     static                          
            copy_one_byte   0x000c88    program     static                          
                  decoder   0x00042c    program     extern C:\Users\JUNIOR\Google Drive\Maua\Aplicada2-Pic\labintegrado2014\Firmware\controlador PI\main.c
                     done   0x000cac    program     static                          
             done_copying   0x000c96    program     static                          
          escreve_comando   0x000342    program     extern C:\Users\JUNIOR\Google Drive\Maua\Aplicada2-Pic\labintegrado2014\Firmware\controlador PI\main.c
             escreve_dado   0x000394    program     extern C:\Users\JUNIOR\Google Drive\Maua\Aplicada2-Pic\labintegrado2014\Firmware\controlador PI\main.c
         exibe_referencia   0x0005c4    program     extern C:\Users\JUNIOR\Google Drive\Maua\Aplicada2-Pic\labintegrado2014\Firmware\controlador PI\main.c
          exibe_tabelalcd   0x000552    program     extern C:\Users\JUNIOR\Google Drive\Maua\Aplicada2-Pic\labintegrado2014\Firmware\controlador PI\main.c
               inicia_lcd   0x0003e6    program     extern C:\Users\JUNIOR\Google Drive\Maua\Aplicada2-Pic\labintegrado2014\Firmware\controlador PI\main.c
                 jANotInf   0x000990    program     static E:\3.46\pic18-lt\cxx-framework\src\traditional\math\mulFP.asm
                 jANotInf   0x00086e    program     static E:\3.46\pic18-lt\cxx-framework\src\traditional\math\addFP.asm
                 jANotNeg   0x000902    program     static E:\3.46\pic18-lt\cxx-framework\src\traditional\math\addFP.asm
              jAandWsetup   0x0008d2    program     static E:\3.46\pic18-lt\cxx-framework\src\traditional\math\addFP.asm
                 jAltBexp   0x0008c0    program     static E:\3.46\pic18-lt\cxx-framework\src\traditional\math\addFP.asm
                jBANotInf   0x000864    program     static E:\3.46\pic18-lt\cxx-framework\src\traditional\math\addFP.asm
                 jBNotInf   0x00087c    program     static E:\3.46\pic18-lt\cxx-framework\src\traditional\math\addFP.asm
              jBothFinite   0x00099e    program     static E:\3.46\pic18-lt\cxx-framework\src\traditional\math\mulFP.asm
             jBothNotZero   0x0009aa    program     static E:\3.46\pic18-lt\cxx-framework\src\traditional\math\mulFP.asm
            jDifOrPosSign   0x000890    program     static E:\3.46\pic18-lt\cxx-framework\src\traditional\math\addFP.asm
                    jExit   0x000b02    program     static E:\3.46\pic18-lt\cxx-framework\src\traditional\math\castFP16.asm
               jFinalSign   0x00096a    program     static E:\3.46\pic18-lt\cxx-framework\src\traditional\math\addFP.asm
                jHaveZero   0x0009a6    program     static E:\3.46\pic18-lt\cxx-framework\src\traditional\math\mulFP.asm
                jI2F16Beg   0x00082e    program     static E:\3.46\pic18-lt\cxx-framework\src\traditional\math\cast16FP.asm
                    jLoop   0x000ae2    program     static E:\3.46\pic18-lt\cxx-framework\src\traditional\math\castFP16.asm
                jLoopExit   0x000af2    program     static E:\3.46\pic18-lt\cxx-framework\src\traditional\math\castFP16.asm
                     jMax   0x000ab6    program     static E:\3.46\pic18-lt\cxx-framework\src\traditional\math\castFP16.asm
                  jMaxNeg   0x000ac4    program     static E:\3.46\pic18-lt\cxx-framework\src\traditional\math\castFP16.asm
                  jMaxPos   0x000aba    program     static E:\3.46\pic18-lt\cxx-framework\src\traditional\math\castFP16.asm
             jNotBothZero   0x000894    program     static E:\3.46\pic18-lt\cxx-framework\src\traditional\math\addFP.asm
                  jNotInf   0x000ad2    program     static E:\3.46\pic18-lt\cxx-framework\src\traditional\math\castFP16.asm
                  jPkLoop   0x000b4a    program     static E:\3.46\pic18-lt\cxx-framework\src\traditional\math\packFP.asm
             jPkRoundDone   0x000b94    program     static E:\3.46\pic18-lt\cxx-framework\src\traditional\math\packFP.asm
               jPkRoundIt   0x000b7c    program     static E:\3.46\pic18-lt\cxx-framework\src\traditional\math\packFP.asm
             jPkShiftDone   0x000b66    program     static E:\3.46\pic18-lt\cxx-framework\src\traditional\math\packFP.asm
           jReturnPosInf0   0x000b20    program     static E:\3.46\pic18-lt\cxx-framework\src\traditional\math\packFP.asm
               jShiftDone   0x00092a    program     static E:\3.46\pic18-lt\cxx-framework\src\traditional\math\addFP.asm
               jShiftLoop   0x00091c    program     static E:\3.46\pic18-lt\cxx-framework\src\traditional\math\addFP.asm
                jSignDone   0x00095a    program     static E:\3.46\pic18-lt\cxx-framework\src\traditional\math\addFP.asm
                  jUnpkA1   0x000bbe    program     static E:\3.46\pic18-lt\cxx-framework\src\traditional\math\UnpackFP.asm
                  jUnpkA2   0x000bd6    program     static E:\3.46\pic18-lt\cxx-framework\src\traditional\math\UnpackFP.asm
                 jUnpkANZ   0x000bcc    program     static E:\3.46\pic18-lt\cxx-framework\src\traditional\math\UnpackFP.asm
                  jUnpkB1   0x000bee    program     static E:\3.46\pic18-lt\cxx-framework\src\traditional\math\UnpackFP.asm
                  jUnpkB2   0x000c06    program     static E:\3.46\pic18-lt\cxx-framework\src\traditional\math\UnpackFP.asm
                 jUnpkBNZ   0x000bfc    program     static E:\3.46\pic18-lt\cxx-framework\src\traditional\math\UnpackFP.asm
                 jUnpkNaN   0x000be0    program     static E:\3.46\pic18-lt\cxx-framework\src\traditional\math\UnpackFP.asm
                 jWNotNeg   0x000916    program     static E:\3.46\pic18-lt\cxx-framework\src\traditional\math\addFP.asm
                    jZero   0x000acc    program     static E:\3.46\pic18-lt\cxx-framework\src\traditional\math\castFP16.asm
               jZero1and2   0x000b24    program     static E:\3.46\pic18-lt\cxx-framework\src\traditional\math\packFP.asm
                    le_ad   0x000494    program     extern C:\Users\JUNIOR\Google Drive\Maua\Aplicada2-Pic\labintegrado2014\Firmware\controlador PI\main.c
                le_tabela   0x0004b0    program     extern C:\Users\JUNIOR\Google Drive\Maua\Aplicada2-Pic\labintegrado2014\Firmware\controlador PI\main.c
                     loop   0x000f44    program     static                          
                   loop_h   0x000f22    program     static E:\3.46\pic18-lt\cxx-framework\src\traditional\proc\p18f4520.asm
                   loop_l   0x000f2c    program     static E:\3.46\pic18-lt\cxx-framework\src\traditional\proc\p18f4520.asm
                     main   0x0002b2    program     extern C:\Users\JUNIOR\Google Drive\Maua\Aplicada2-Pic\labintegrado2014\Firmware\controlador PI\main.c
                putsUSART   0x000e04    program     extern E:\3.46\pic18-lt\cxx-framework\src\pmc_common\USART\uputs.c
                  teclado   0x00061e    program     extern C:\Users\JUNIOR\Google Drive\Maua\Aplicada2-Pic\labintegrado2014\Firmware\controlador PI\main.c
                     test   0x000c2a    program     static                          
    vec_int_high_priority   0x000008    program     extern C:\Users\JUNIOR\Google Drive\Maua\Aplicada2-Pic\labintegrado2014\Firmware\controlador PI\main.c
               zero_block   0x000f22    program     static E:\3.46\pic18-lt\cxx-framework\src\traditional\proc\p18f4520.asm
                   ADCON0   0x000fc2       data     extern E:\3.46\pic18-lt\cxx-framework\src\traditional\proc\p18f4520.asm
               ADCON0bits   0x000fc2       data     extern E:\3.46\pic18-lt\cxx-framework\src\traditional\proc\p18f4520.asm
                   ADCON1   0x000fc1       data     extern E:\3.46\pic18-lt\cxx-framework\src\traditional\proc\p18f4520.asm
               ADCON1bits   0x000fc1       data     extern E:\3.46\pic18-lt\cxx-framework\src\traditional\proc\p18f4520.asm
                   ADCON2   0x000fc0       data     extern E:\3.46\pic18-lt\cxx-framework\src\traditional\proc\p18f4520.asm
               ADCON2bits   0x000fc0       data     extern E:\3.46\pic18-lt\cxx-framework\src\traditional\proc\p18f4520.asm
                    ADRES   0x000fc3       data     extern E:\3.46\pic18-lt\cxx-framework\src\traditional\proc\p18f4520.asm
                   ADRESH   0x000fc4       data     extern E:\3.46\pic18-lt\cxx-framework\src\traditional\proc\p18f4520.asm
                   ADRESL   0x000fc3       data     extern E:\3.46\pic18-lt\cxx-framework\src\traditional\proc\p18f4520.asm
                AvancaRef   0x000092       data     extern C:\Users\JUNIOR\Google Drive\Maua\Aplicada2-Pic\labintegrado2014\Firmware\controlador PI\main.c
                  BAUDCON   0x000fb8       data     extern E:\3.46\pic18-lt\cxx-framework\src\traditional\proc\p18f4520.asm
              BAUDCONbits   0x000fb8       data     extern E:\3.46\pic18-lt\cxx-framework\src\traditional\proc\p18f4520.asm
                  BAUDCTL   0x000fb8       data     extern E:\3.46\pic18-lt\cxx-framework\src\traditional\proc\p18f4520.asm
              BAUDCTLbits   0x000fb8       data     extern E:\3.46\pic18-lt\cxx-framework\src\traditional\proc\p18f4520.asm
                      BSR   0x000fe0       data     extern E:\3.46\pic18-lt\cxx-framework\src\traditional\proc\p18f4520.asm
                     Bot0   0x00008e       data     extern C:\Users\JUNIOR\Google Drive\Maua\Aplicada2-Pic\labintegrado2014\Firmware\controlador PI\main.c
                     Bot1   0x000085       data     extern C:\Users\JUNIOR\Google Drive\Maua\Aplicada2-Pic\labintegrado2014\Firmware\controlador PI\main.c
                     Bot2   0x000086       data     extern C:\Users\JUNIOR\Google Drive\Maua\Aplicada2-Pic\labintegrado2014\Firmware\controlador PI\main.c
                     Bot3   0x000087       data     extern C:\Users\JUNIOR\Google Drive\Maua\Aplicada2-Pic\labintegrado2014\Firmware\controlador PI\main.c
                     Bot4   0x000088       data     extern C:\Users\JUNIOR\Google Drive\Maua\Aplicada2-Pic\labintegrado2014\Firmware\controlador PI\main.c
                     Bot5   0x000089       data     extern C:\Users\JUNIOR\Google Drive\Maua\Aplicada2-Pic\labintegrado2014\Firmware\controlador PI\main.c
                     Bot6   0x00008a       data     extern C:\Users\JUNIOR\Google Drive\Maua\Aplicada2-Pic\labintegrado2014\Firmware\controlador PI\main.c
                     Bot7   0x00008b       data     extern C:\Users\JUNIOR\Google Drive\Maua\Aplicada2-Pic\labintegrado2014\Firmware\controlador PI\main.c
                     Bot8   0x00008c       data     extern C:\Users\JUNIOR\Google Drive\Maua\Aplicada2-Pic\labintegrado2014\Firmware\controlador PI\main.c
                     Bot9   0x00008d       data     extern C:\Users\JUNIOR\Google Drive\Maua\Aplicada2-Pic\labintegrado2014\Firmware\controlador PI\main.c
                  CCP1CON   0x000fbd       data     extern E:\3.46\pic18-lt\cxx-framework\src\traditional\proc\p18f4520.asm
              CCP1CONbits   0x000fbd       data     extern E:\3.46\pic18-lt\cxx-framework\src\traditional\proc\p18f4520.asm
                  CCP2CON   0x000fba       data     extern E:\3.46\pic18-lt\cxx-framework\src\traditional\proc\p18f4520.asm
              CCP2CONbits   0x000fba       data     extern E:\3.46\pic18-lt\cxx-framework\src\traditional\proc\p18f4520.asm
                    CCPR1   0x000fbe       data     extern E:\3.46\pic18-lt\cxx-framework\src\traditional\proc\p18f4520.asm
                   CCPR1H   0x000fbf       data     extern E:\3.46\pic18-lt\cxx-framework\src\traditional\proc\p18f4520.asm
                   CCPR1L   0x000fbe       data     extern E:\3.46\pic18-lt\cxx-framework\src\traditional\proc\p18f4520.asm
                    CCPR2   0x000fbb       data     extern E:\3.46\pic18-lt\cxx-framework\src\traditional\proc\p18f4520.asm
                   CCPR2H   0x000fbc       data     extern E:\3.46\pic18-lt\cxx-framework\src\traditional\proc\p18f4520.asm
                   CCPR2L   0x000fbb       data     extern E:\3.46\pic18-lt\cxx-framework\src\traditional\proc\p18f4520.asm
                    CMCON   0x000fb4       data     extern E:\3.46\pic18-lt\cxx-framework\src\traditional\proc\p18f4520.asm
                CMCONbits   0x000fb4       data     extern E:\3.46\pic18-lt\cxx-framework\src\traditional\proc\p18f4520.asm
                   CVRCON   0x000fb5       data     extern E:\3.46\pic18-lt\cxx-framework\src\traditional\proc\p18f4520.asm
               CVRCONbits   0x000fb5       data     extern E:\3.46\pic18-lt\cxx-framework\src\traditional\proc\p18f4520.asm
                     DDRA   0x000f92       data     extern E:\3.46\pic18-lt\cxx-framework\src\traditional\proc\p18f4520.asm
                 DDRAbits   0x000f92       data     extern E:\3.46\pic18-lt\cxx-framework\src\traditional\proc\p18f4520.asm
                     DDRB   0x000f93       data     extern E:\3.46\pic18-lt\cxx-framework\src\traditional\proc\p18f4520.asm
                 DDRBbits   0x000f93       data     extern E:\3.46\pic18-lt\cxx-framework\src\traditional\proc\p18f4520.asm
                     DDRC   0x000f94       data     extern E:\3.46\pic18-lt\cxx-framework\src\traditional\proc\p18f4520.asm
                 DDRCbits   0x000f94       data     extern E:\3.46\pic18-lt\cxx-framework\src\traditional\proc\p18f4520.asm
                     DDRD   0x000f95       data     extern E:\3.46\pic18-lt\cxx-framework\src\traditional\proc\p18f4520.asm
                 DDRDbits   0x000f95       data     extern E:\3.46\pic18-lt\cxx-framework\src\traditional\proc\p18f4520.asm
                     DDRE   0x000f96       data     extern E:\3.46\pic18-lt\cxx-framework\src\traditional\proc\p18f4520.asm
                 DDREbits   0x000f96       data     extern E:\3.46\pic18-lt\cxx-framework\src\traditional\proc\p18f4520.asm
            DelayCounter1   0x000031       data     extern E:\3.46\pic18-lt\cxx-framework\src\traditional\delays\delayd1.asm
            DelayCounter2   0x000030       data     extern E:\3.46\pic18-lt\cxx-framework\src\traditional\delays\delayd2.asm
                  ECCP1AS   0x000fb6       data     extern E:\3.46\pic18-lt\cxx-framework\src\traditional\proc\p18f4520.asm
              ECCP1ASbits   0x000fb6       data     extern E:\3.46\pic18-lt\cxx-framework\src\traditional\proc\p18f4520.asm
                 ECCP1DEL   0x000fb7       data     extern E:\3.46\pic18-lt\cxx-framework\src\traditional\proc\p18f4520.asm
             ECCP1DELbits   0x000fb7       data     extern E:\3.46\pic18-lt\cxx-framework\src\traditional\proc\p18f4520.asm
                   ECCPAS   0x000fb6       data     extern E:\3.46\pic18-lt\cxx-framework\src\traditional\proc\p18f4520.asm
               ECCPASbits   0x000fb6       data     extern E:\3.46\pic18-lt\cxx-framework\src\traditional\proc\p18f4520.asm
                    EEADR   0x000fa9       data     extern E:\3.46\pic18-lt\cxx-framework\src\traditional\proc\p18f4520.asm
                   EECON1   0x000fa6       data     extern E:\3.46\pic18-lt\cxx-framework\src\traditional\proc\p18f4520.asm
               EECON1bits   0x000fa6       data     extern E:\3.46\pic18-lt\cxx-framework\src\traditional\proc\p18f4520.asm
                   EECON2   0x000fa7       data     extern E:\3.46\pic18-lt\cxx-framework\src\traditional\proc\p18f4520.asm
                   EEDATA   0x000fa8       data     extern E:\3.46\pic18-lt\cxx-framework\src\traditional\proc\p18f4520.asm
                 EntraRef   0x00008f       data     extern C:\Users\JUNIOR\Google Drive\Maua\Aplicada2-Pic\labintegrado2014\Firmware\controlador PI\main.c
                     FSR0   0x000fe9       data     extern E:\3.46\pic18-lt\cxx-framework\src\traditional\proc\p18f4520.asm
                    FSR0H   0x000fea       data     extern E:\3.46\pic18-lt\cxx-framework\src\traditional\proc\p18f4520.asm
                    FSR0L   0x000fe9       data     extern E:\3.46\pic18-lt\cxx-framework\src\traditional\proc\p18f4520.asm
                     FSR1   0x000fe1       data     extern E:\3.46\pic18-lt\cxx-framework\src\traditional\proc\p18f4520.asm
                    FSR1H   0x000fe2       data     extern E:\3.46\pic18-lt\cxx-framework\src\traditional\proc\p18f4520.asm
                    FSR1L   0x000fe1       data     extern E:\3.46\pic18-lt\cxx-framework\src\traditional\proc\p18f4520.asm
                     FSR2   0x000fd9       data     extern E:\3.46\pic18-lt\cxx-framework\src\traditional\proc\p18f4520.asm
                    FSR2H   0x000fda       data     extern E:\3.46\pic18-lt\cxx-framework\src\traditional\proc\p18f4520.asm
                    FSR2L   0x000fd9       data     extern E:\3.46\pic18-lt\cxx-framework\src\traditional\proc\p18f4520.asm
                  HLVDCON   0x000fd2       data     extern E:\3.46\pic18-lt\cxx-framework\src\traditional\proc\p18f4520.asm
              HLVDCONbits   0x000fd2       data     extern E:\3.46\pic18-lt\cxx-framework\src\traditional\proc\p18f4520.asm
                    INDF0   0x000fef       data     extern E:\3.46\pic18-lt\cxx-framework\src\traditional\proc\p18f4520.asm
                    INDF1   0x000fe7       data     extern E:\3.46\pic18-lt\cxx-framework\src\traditional\proc\p18f4520.asm
                    INDF2   0x000fdf       data     extern E:\3.46\pic18-lt\cxx-framework\src\traditional\proc\p18f4520.asm
                   INTCON   0x000ff2       data     extern E:\3.46\pic18-lt\cxx-framework\src\traditional\proc\p18f4520.asm
                  INTCON2   0x000ff1       data     extern E:\3.46\pic18-lt\cxx-framework\src\traditional\proc\p18f4520.asm
              INTCON2bits   0x000ff1       data     extern E:\3.46\pic18-lt\cxx-framework\src\traditional\proc\p18f4520.asm
                  INTCON3   0x000ff0       data     extern E:\3.46\pic18-lt\cxx-framework\src\traditional\proc\p18f4520.asm
              INTCON3bits   0x000ff0       data     extern E:\3.46\pic18-lt\cxx-framework\src\traditional\proc\p18f4520.asm
               INTCONbits   0x000ff2       data     extern E:\3.46\pic18-lt\cxx-framework\src\traditional\proc\p18f4520.asm
                     IPR1   0x000f9f       data     extern E:\3.46\pic18-lt\cxx-framework\src\traditional\proc\p18f4520.asm
                 IPR1bits   0x000f9f       data     extern E:\3.46\pic18-lt\cxx-framework\src\traditional\proc\p18f4520.asm
                     IPR2   0x000fa2       data     extern E:\3.46\pic18-lt\cxx-framework\src\traditional\proc\p18f4520.asm
                 IPR2bits   0x000fa2       data     extern E:\3.46\pic18-lt\cxx-framework\src\traditional\proc\p18f4520.asm
                     LATA   0x000f89       data     extern E:\3.46\pic18-lt\cxx-framework\src\traditional\proc\p18f4520.asm
                 LATAbits   0x000f89       data     extern E:\3.46\pic18-lt\cxx-framework\src\traditional\proc\p18f4520.asm
                     LATB   0x000f8a       data     extern E:\3.46\pic18-lt\cxx-framework\src\traditional\proc\p18f4520.asm
                 LATBbits   0x000f8a       data     extern E:\3.46\pic18-lt\cxx-framework\src\traditional\proc\p18f4520.asm
                     LATC   0x000f8b       data     extern E:\3.46\pic18-lt\cxx-framework\src\traditional\proc\p18f4520.asm
                 LATCbits   0x000f8b       data     extern E:\3.46\pic18-lt\cxx-framework\src\traditional\proc\p18f4520.asm
                     LATD   0x000f8c       data     extern E:\3.46\pic18-lt\cxx-framework\src\traditional\proc\p18f4520.asm
                 LATDbits   0x000f8c       data     extern E:\3.46\pic18-lt\cxx-framework\src\traditional\proc\p18f4520.asm
                     LATE   0x000f8d       data     extern E:\3.46\pic18-lt\cxx-framework\src\traditional\proc\p18f4520.asm
                 LATEbits   0x000f8d       data     extern E:\3.46\pic18-lt\cxx-framework\src\traditional\proc\p18f4520.asm
                   LVDCON   0x000fd2       data     extern E:\3.46\pic18-lt\cxx-framework\src\traditional\proc\p18f4520.asm
               LVDCONbits   0x000fd2       data     extern E:\3.46\pic18-lt\cxx-framework\src\traditional\proc\p18f4520.asm
                   OSCCON   0x000fd3       data     extern E:\3.46\pic18-lt\cxx-framework\src\traditional\proc\p18f4520.asm
               OSCCONbits   0x000fd3       data     extern E:\3.46\pic18-lt\cxx-framework\src\traditional\proc\p18f4520.asm
                  OSCTUNE   0x000f9b       data     extern E:\3.46\pic18-lt\cxx-framework\src\traditional\proc\p18f4520.asm
              OSCTUNEbits   0x000f9b       data     extern E:\3.46\pic18-lt\cxx-framework\src\traditional\proc\p18f4520.asm
                       PC   0x000ff9       data     extern E:\3.46\pic18-lt\cxx-framework\src\traditional\proc\p18f4520.asm
                      PCL   0x000ff9       data     extern E:\3.46\pic18-lt\cxx-framework\src\traditional\proc\p18f4520.asm
                   PCLATH   0x000ffa       data     extern E:\3.46\pic18-lt\cxx-framework\src\traditional\proc\p18f4520.asm
                   PCLATU   0x000ffb       data     extern E:\3.46\pic18-lt\cxx-framework\src\traditional\proc\p18f4520.asm
                     PIE1   0x000f9d       data     extern E:\3.46\pic18-lt\cxx-framework\src\traditional\proc\p18f4520.asm
                 PIE1bits   0x000f9d       data     extern E:\3.46\pic18-lt\cxx-framework\src\traditional\proc\p18f4520.asm
                     PIE2   0x000fa0       data     extern E:\3.46\pic18-lt\cxx-framework\src\traditional\proc\p18f4520.asm
                 PIE2bits   0x000fa0       data     extern E:\3.46\pic18-lt\cxx-framework\src\traditional\proc\p18f4520.asm
                     PIR1   0x000f9e       data     extern E:\3.46\pic18-lt\cxx-framework\src\traditional\proc\p18f4520.asm
                 PIR1bits   0x000f9e       data     extern E:\3.46\pic18-lt\cxx-framework\src\traditional\proc\p18f4520.asm
                     PIR2   0x000fa1       data     extern E:\3.46\pic18-lt\cxx-framework\src\traditional\proc\p18f4520.asm
                 PIR2bits   0x000fa1       data     extern E:\3.46\pic18-lt\cxx-framework\src\traditional\proc\p18f4520.asm
                   PLUSW0   0x000feb       data     extern E:\3.46\pic18-lt\cxx-framework\src\traditional\proc\p18f4520.asm
                   PLUSW1   0x000fe3       data     extern E:\3.46\pic18-lt\cxx-framework\src\traditional\proc\p18f4520.asm
                   PLUSW2   0x000fdb       data     extern E:\3.46\pic18-lt\cxx-framework\src\traditional\proc\p18f4520.asm
                    PORTA   0x000f80       data     extern E:\3.46\pic18-lt\cxx-framework\src\traditional\proc\p18f4520.asm
                PORTAbits   0x000f80       data     extern E:\3.46\pic18-lt\cxx-framework\src\traditional\proc\p18f4520.asm
                    PORTB   0x000f81       data     extern E:\3.46\pic18-lt\cxx-framework\src\traditional\proc\p18f4520.asm
                PORTBbits   0x000f81       data     extern E:\3.46\pic18-lt\cxx-framework\src\traditional\proc\p18f4520.asm
                    PORTC   0x000f82       data     extern E:\3.46\pic18-lt\cxx-framework\src\traditional\proc\p18f4520.asm
                PORTCbits   0x000f82       data     extern E:\3.46\pic18-lt\cxx-framework\src\traditional\proc\p18f4520.asm
                    PORTD   0x000f83       data     extern E:\3.46\pic18-lt\cxx-framework\src\traditional\proc\p18f4520.asm
                PORTDbits   0x000f83       data     extern E:\3.46\pic18-lt\cxx-framework\src\traditional\proc\p18f4520.asm
                    PORTE   0x000f84       data     extern E:\3.46\pic18-lt\cxx-framework\src\traditional\proc\p18f4520.asm
                PORTEbits   0x000f84       data     extern E:\3.46\pic18-lt\cxx-framework\src\traditional\proc\p18f4520.asm
                 PORT_aux   0x000082       data     extern C:\Users\JUNIOR\Google Drive\Maua\Aplicada2-Pic\labintegrado2014\Firmware\controlador PI\main.c
                 POSTDEC0   0x000fed       data     extern E:\3.46\pic18-lt\cxx-framework\src\traditional\proc\p18f4520.asm
                 POSTDEC1   0x000fe5       data     extern E:\3.46\pic18-lt\cxx-framework\src\traditional\proc\p18f4520.asm
                 POSTDEC2   0x000fdd       data     extern E:\3.46\pic18-lt\cxx-framework\src\traditional\proc\p18f4520.asm
                 POSTINC0   0x000fee       data     extern E:\3.46\pic18-lt\cxx-framework\src\traditional\proc\p18f4520.asm
                 POSTINC1   0x000fe6       data     extern E:\3.46\pic18-lt\cxx-framework\src\traditional\proc\p18f4520.asm
                 POSTINC2   0x000fde       data     extern E:\3.46\pic18-lt\cxx-framework\src\traditional\proc\p18f4520.asm
                      PR2   0x000fcb       data     extern E:\3.46\pic18-lt\cxx-framework\src\traditional\proc\p18f4520.asm
                  PREINC0   0x000fec       data     extern E:\3.46\pic18-lt\cxx-framework\src\traditional\proc\p18f4520.asm
                  PREINC1   0x000fe4       data     extern E:\3.46\pic18-lt\cxx-framework\src\traditional\proc\p18f4520.asm
                  PREINC2   0x000fdc       data     extern E:\3.46\pic18-lt\cxx-framework\src\traditional\proc\p18f4520.asm
                     PROD   0x000ff3       data     extern E:\3.46\pic18-lt\cxx-framework\src\traditional\proc\p18f4520.asm
                    PRODH   0x000ff4       data     extern E:\3.46\pic18-lt\cxx-framework\src\traditional\proc\p18f4520.asm
                    PRODL   0x000ff3       data     extern E:\3.46\pic18-lt\cxx-framework\src\traditional\proc\p18f4520.asm
                      PWM   0x0000a1       data     extern C:\Users\JUNIOR\Google Drive\Maua\Aplicada2-Pic\labintegrado2014\Firmware\controlador PI\main.c
                  PWM1CON   0x000fb7       data     extern E:\3.46\pic18-lt\cxx-framework\src\traditional\proc\p18f4520.asm
              PWM1CONbits   0x000fb7       data     extern E:\3.46\pic18-lt\cxx-framework\src\traditional\proc\p18f4520.asm
                     RCON   0x000fd0       data     extern E:\3.46\pic18-lt\cxx-framework\src\traditional\proc\p18f4520.asm
                 RCONbits   0x000fd0       data     extern E:\3.46\pic18-lt\cxx-framework\src\traditional\proc\p18f4520.asm
                    RCREG   0x000fae       data     extern E:\3.46\pic18-lt\cxx-framework\src\traditional\proc\p18f4520.asm
                    RCSTA   0x000fab       data     extern E:\3.46\pic18-lt\cxx-framework\src\traditional\proc\p18f4520.asm
                RCSTAbits   0x000fab       data     extern E:\3.46\pic18-lt\cxx-framework\src\traditional\proc\p18f4520.asm
                 RecuaRef   0x000091       data     extern C:\Users\JUNIOR\Google Drive\Maua\Aplicada2-Pic\labintegrado2014\Firmware\controlador PI\main.c
                     SIGN   0x00001c       data     extern E:\3.46\pic18-lt\cxx-framework\src\traditional\math\cmath18.asm
                    SPBRG   0x000faf       data     extern E:\3.46\pic18-lt\cxx-framework\src\traditional\proc\p18f4520.asm
                   SPBRGH   0x000fb0       data     extern E:\3.46\pic18-lt\cxx-framework\src\traditional\proc\p18f4520.asm
                   SSPADD   0x000fc8       data     extern E:\3.46\pic18-lt\cxx-framework\src\traditional\proc\p18f4520.asm
                   SSPBUF   0x000fc9       data     extern E:\3.46\pic18-lt\cxx-framework\src\traditional\proc\p18f4520.asm
                  SSPCON1   0x000fc6       data     extern E:\3.46\pic18-lt\cxx-framework\src\traditional\proc\p18f4520.asm
              SSPCON1bits   0x000fc6       data     extern E:\3.46\pic18-lt\cxx-framework\src\traditional\proc\p18f4520.asm
                  SSPCON2   0x000fc5       data     extern E:\3.46\pic18-lt\cxx-framework\src\traditional\proc\p18f4520.asm
              SSPCON2bits   0x000fc5       data     extern E:\3.46\pic18-lt\cxx-framework\src\traditional\proc\p18f4520.asm
                  SSPSTAT   0x000fc7       data     extern E:\3.46\pic18-lt\cxx-framework\src\traditional\proc\p18f4520.asm
              SSPSTATbits   0x000fc7       data     extern E:\3.46\pic18-lt\cxx-framework\src\traditional\proc\p18f4520.asm
                   STATUS   0x000fd8       data     extern E:\3.46\pic18-lt\cxx-framework\src\traditional\proc\p18f4520.asm
               STATUSbits   0x000fd8       data     extern E:\3.46\pic18-lt\cxx-framework\src\traditional\proc\p18f4520.asm
                   STKPTR   0x000ffc       data     extern E:\3.46\pic18-lt\cxx-framework\src\traditional\proc\p18f4520.asm
               STKPTRbits   0x000ffc       data     extern E:\3.46\pic18-lt\cxx-framework\src\traditional\proc\p18f4520.asm
                    T0CON   0x000fd5       data     extern E:\3.46\pic18-lt\cxx-framework\src\traditional\proc\p18f4520.asm
                T0CONbits   0x000fd5       data     extern E:\3.46\pic18-lt\cxx-framework\src\traditional\proc\p18f4520.asm
                    T1CON   0x000fcd       data     extern E:\3.46\pic18-lt\cxx-framework\src\traditional\proc\p18f4520.asm
                T1CONbits   0x000fcd       data     extern E:\3.46\pic18-lt\cxx-framework\src\traditional\proc\p18f4520.asm
                    T2CON   0x000fca       data     extern E:\3.46\pic18-lt\cxx-framework\src\traditional\proc\p18f4520.asm
                T2CONbits   0x000fca       data     extern E:\3.46\pic18-lt\cxx-framework\src\traditional\proc\p18f4520.asm
                    T3CON   0x000fb1       data     extern E:\3.46\pic18-lt\cxx-framework\src\traditional\proc\p18f4520.asm
                T3CONbits   0x000fb1       data     extern E:\3.46\pic18-lt\cxx-framework\src\traditional\proc\p18f4520.asm
                   TABLAT   0x000ff5       data     extern E:\3.46\pic18-lt\cxx-framework\src\traditional\proc\p18f4520.asm
                   TBLPTR   0x000ff6       data     extern E:\3.46\pic18-lt\cxx-framework\src\traditional\proc\p18f4520.asm
                  TBLPTRH   0x000ff7       data     extern E:\3.46\pic18-lt\cxx-framework\src\traditional\proc\p18f4520.asm
                  TBLPTRL   0x000ff6       data     extern E:\3.46\pic18-lt\cxx-framework\src\traditional\proc\p18f4520.asm
                  TBLPTRU   0x000ff8       data     extern E:\3.46\pic18-lt\cxx-framework\src\traditional\proc\p18f4520.asm
                    TMR0H   0x000fd7       data     extern E:\3.46\pic18-lt\cxx-framework\src\traditional\proc\p18f4520.asm
                    TMR0L   0x000fd6       data     extern E:\3.46\pic18-lt\cxx-framework\src\traditional\proc\p18f4520.asm
                    TMR1H   0x000fcf       data     extern E:\3.46\pic18-lt\cxx-framework\src\traditional\proc\p18f4520.asm
                    TMR1L   0x000fce       data     extern E:\3.46\pic18-lt\cxx-framework\src\traditional\proc\p18f4520.asm
                     TMR2   0x000fcc       data     extern E:\3.46\pic18-lt\cxx-framework\src\traditional\proc\p18f4520.asm
                    TMR3H   0x000fb3       data     extern E:\3.46\pic18-lt\cxx-framework\src\traditional\proc\p18f4520.asm
                    TMR3L   0x000fb2       data     extern E:\3.46\pic18-lt\cxx-framework\src\traditional\proc\p18f4520.asm
                      TOS   0x000ffd       data     extern E:\3.46\pic18-lt\cxx-framework\src\traditional\proc\p18f4520.asm
                     TOSH   0x000ffe       data     extern E:\3.46\pic18-lt\cxx-framework\src\traditional\proc\p18f4520.asm
                     TOSL   0x000ffd       data     extern E:\3.46\pic18-lt\cxx-framework\src\traditional\proc\p18f4520.asm
                     TOSU   0x000fff       data     extern E:\3.46\pic18-lt\cxx-framework\src\traditional\proc\p18f4520.asm
                    TRISA   0x000f92       data     extern E:\3.46\pic18-lt\cxx-framework\src\traditional\proc\p18f4520.asm
                TRISAbits   0x000f92       data     extern E:\3.46\pic18-lt\cxx-framework\src\traditional\proc\p18f4520.asm
                    TRISB   0x000f93       data     extern E:\3.46\pic18-lt\cxx-framework\src\traditional\proc\p18f4520.asm
                TRISBbits   0x000f93       data     extern E:\3.46\pic18-lt\cxx-framework\src\traditional\proc\p18f4520.asm
                    TRISC   0x000f94       data     extern E:\3.46\pic18-lt\cxx-framework\src\traditional\proc\p18f4520.asm
                TRISCbits   0x000f94       data     extern E:\3.46\pic18-lt\cxx-framework\src\traditional\proc\p18f4520.asm
                    TRISD   0x000f95       data     extern E:\3.46\pic18-lt\cxx-framework\src\traditional\proc\p18f4520.asm
                TRISDbits   0x000f95       data     extern E:\3.46\pic18-lt\cxx-framework\src\traditional\proc\p18f4520.asm
                    TRISE   0x000f96       data     extern E:\3.46\pic18-lt\cxx-framework\src\traditional\proc\p18f4520.asm
                TRISEbits   0x000f96       data     extern E:\3.46\pic18-lt\cxx-framework\src\traditional\proc\p18f4520.asm
                    TXREG   0x000fad       data     extern E:\3.46\pic18-lt\cxx-framework\src\traditional\proc\p18f4520.asm
                    TXSTA   0x000fac       data     extern E:\3.46\pic18-lt\cxx-framework\src\traditional\proc\p18f4520.asm
                TXSTAbits   0x000fac       data     extern E:\3.46\pic18-lt\cxx-framework\src\traditional\proc\p18f4520.asm
             USART_Status   0x0000d7       data     extern E:\3.46\pic18-lt\cxx-framework\src\pmc_common\USART\udefs.c
          Valor_Inicial_H   0x000084       data     extern C:\Users\JUNIOR\Google Drive\Maua\Aplicada2-Pic\labintegrado2014\Firmware\controlador PI\main.c
          Valor_Inicial_L   0x000083       data     extern C:\Users\JUNIOR\Google Drive\Maua\Aplicada2-Pic\labintegrado2014\Firmware\controlador PI\main.c
                        W   0x000fe8       data     extern E:\3.46\pic18-lt\cxx-framework\src\traditional\proc\p18f4520.asm
                   WDTCON   0x000fd1       data     extern E:\3.46\pic18-lt\cxx-framework\src\traditional\proc\p18f4520.asm
               WDTCONbits   0x000fd1       data     extern E:\3.46\pic18-lt\cxx-framework\src\traditional\proc\p18f4520.asm
                     WREG   0x000fe8       data     extern E:\3.46\pic18-lt\cxx-framework\src\traditional\proc\p18f4520.asm
                  ZeraRef   0x000090       data     extern C:\Users\JUNIOR\Google Drive\Maua\Aplicada2-Pic\labintegrado2014\Firmware\controlador PI\main.c
                 __AARGB0   0x000025       data     extern E:\3.46\pic18-lt\cxx-framework\src\traditional\math\aarg.asm
                 __AARGB1   0x000024       data     extern E:\3.46\pic18-lt\cxx-framework\src\traditional\math\aarg.asm
                 __AARGB2   0x000023       data     extern E:\3.46\pic18-lt\cxx-framework\src\traditional\math\aarg.asm
                 __AARGB3   0x000022       data     extern E:\3.46\pic18-lt\cxx-framework\src\traditional\math\aarg.asm
                 __AARGB4   0x000021       data     extern E:\3.46\pic18-lt\cxx-framework\src\traditional\math\aarg.asm
                 __AARGB5   0x000020       data     extern E:\3.46\pic18-lt\cxx-framework\src\traditional\math\aarg.asm
                 __AARGB6   0x00001f       data     extern E:\3.46\pic18-lt\cxx-framework\src\traditional\math\aarg.asm
                 __AARGB7   0x00001e       data     extern E:\3.46\pic18-lt\cxx-framework\src\traditional\math\aarg.asm
                   __AEXP   0x000026       data     extern E:\3.46\pic18-lt\cxx-framework\src\traditional\math\aarg.asm
                 __BARGB0   0x00002a       data     extern E:\3.46\pic18-lt\cxx-framework\src\traditional\math\barg.asm
                 __BARGB1   0x000029       data     extern E:\3.46\pic18-lt\cxx-framework\src\traditional\math\barg.asm
                 __BARGB2   0x000028       data     extern E:\3.46\pic18-lt\cxx-framework\src\traditional\math\barg.asm
                 __BARGB3   0x000027       data     extern E:\3.46\pic18-lt\cxx-framework\src\traditional\math\barg.asm
                   __BEXP   0x00002b       data     extern E:\3.46\pic18-lt\cxx-framework\src\traditional\math\barg.asm
                __FPFLAGS   0x00001d       data     extern E:\3.46\pic18-lt\cxx-framework\src\traditional\math\cmath18.asm
            __FPFLAGSbits   0x00001d       data     extern E:\3.46\pic18-lt\cxx-framework\src\traditional\math\cmath18.asm
                  __REMB0   0x000021       data     extern E:\3.46\pic18-lt\cxx-framework\src\traditional\math\aarg.asm
                  __REMB1   0x000020       data     extern E:\3.46\pic18-lt\cxx-framework\src\traditional\math\aarg.asm
                  __REMB2   0x00001f       data     extern E:\3.46\pic18-lt\cxx-framework\src\traditional\math\aarg.asm
                  __REMB3   0x00001e       data     extern E:\3.46\pic18-lt\cxx-framework\src\traditional\math\aarg.asm
                   __TEMP   0x00002f       data     extern E:\3.46\pic18-lt\cxx-framework\src\traditional\math\temparg.asm
                 __TEMPB0   0x00002f       data     extern E:\3.46\pic18-lt\cxx-framework\src\traditional\math\temparg.asm
                 __TEMPB1   0x00002e       data     extern E:\3.46\pic18-lt\cxx-framework\src\traditional\math\temparg.asm
                 __TEMPB2   0x00002d       data     extern E:\3.46\pic18-lt\cxx-framework\src\traditional\math\temparg.asm
                 __TEMPB3   0x00002c       data     extern E:\3.46\pic18-lt\cxx-framework\src\traditional\math\temparg.asm
                  __tmp_0   0x000000       data     static E:\3.46\pic18-lt\cxx-framework\src\pmc_common\PWM\pw1setdc.c
                  __tmp_0   0x000000       data     static E:\3.46\pic18-lt\cxx-framework\src\pmc_common\ADC\adcread.c
                  __tmp_0   0x000000       data     static E:\3.46\pic18-lt\cxx-framework\src\pmc_common\USART\uopen.c
                  __tmp_0   0x000000       data     static E:\3.46\pic18-lt\cxx-framework\src\pmc_common\ADC\adcopen.c
                  __tmp_0   0x000000       data     static C:\Users\JUNIOR\Google Drive\Maua\Aplicada2-Pic\labintegrado2014\Firmware\controlador PI\main.c
                      com   0x000081       data     extern C:\Users\JUNIOR\Google Drive\Maua\Aplicada2-Pic\labintegrado2014\Firmware\controlador PI\main.c
                curr_byte   0x0000d0       data     static E:\3.46\pic18-lt\cxx-framework\src\traditional\startup\c018i.c
               curr_entry   0x0000d2       data     static E:\3.46\pic18-lt\cxx-framework\src\traditional\startup\c018i.c
                     dado   0x000080       data     extern C:\Users\JUNIOR\Google Drive\Maua\Aplicada2-Pic\labintegrado2014\Firmware\controlador PI\main.c
                 data_ptr   0x0000d4       data     static E:\3.46\pic18-lt\cxx-framework\src\traditional\startup\c018i.c
                  dutyPWM   0x0000cb       data     extern C:\Users\JUNIOR\Google Drive\Maua\Aplicada2-Pic\labintegrado2014\Firmware\controlador PI\main.c
                        e   0x0000af       data     extern C:\Users\JUNIOR\Google Drive\Maua\Aplicada2-Pic\labintegrado2014\Firmware\controlador PI\main.c
                       e0   0x0000b3       data     extern C:\Users\JUNIOR\Google Drive\Maua\Aplicada2-Pic\labintegrado2014\Firmware\controlador PI\main.c
                      hi1   0x000098       data     extern C:\Users\JUNIOR\Google Drive\Maua\Aplicada2-Pic\labintegrado2014\Firmware\controlador PI\main.c
                      hi2   0x000099       data     extern C:\Users\JUNIOR\Google Drive\Maua\Aplicada2-Pic\labintegrado2014\Firmware\controlador PI\main.c
                        i   0x00009f       data     extern C:\Users\JUNIOR\Google Drive\Maua\Aplicada2-Pic\labintegrado2014\Firmware\controlador PI\main.c
                       ki   0x0000c3       data     extern C:\Users\JUNIOR\Google Drive\Maua\Aplicada2-Pic\labintegrado2014\Firmware\controlador PI\main.c
                       kp   0x0000c7       data     extern C:\Users\JUNIOR\Google Drive\Maua\Aplicada2-Pic\labintegrado2014\Firmware\controlador PI\main.c
                     low1   0x000096       data     extern C:\Users\JUNIOR\Google Drive\Maua\Aplicada2-Pic\labintegrado2014\Firmware\controlador PI\main.c
                     low2   0x000097       data     extern C:\Users\JUNIOR\Google Drive\Maua\Aplicada2-Pic\labintegrado2014\Firmware\controlador PI\main.c
               posicaolcd   0x000093       data     extern C:\Users\JUNIOR\Google Drive\Maua\Aplicada2-Pic\labintegrado2014\Firmware\controlador PI\main.c
                     prom   0x0000cd       data     static E:\3.46\pic18-lt\cxx-framework\src\traditional\startup\c018i.c
                      ref   0x0000bb       data     extern C:\Users\JUNIOR\Google Drive\Maua\Aplicada2-Pic\labintegrado2014\Firmware\controlador PI\main.c
                        t   0x0000bf       data     extern C:\Users\JUNIOR\Google Drive\Maua\Aplicada2-Pic\labintegrado2014\Firmware\controlador PI\main.c
                     temp   0x0000b7       data     extern C:\Users\JUNIOR\Google Drive\Maua\Aplicada2-Pic\labintegrado2014\Firmware\controlador PI\main.c
                        u   0x00009a       data     extern C:\Users\JUNIOR\Google Drive\Maua\Aplicada2-Pic\labintegrado2014\Firmware\controlador PI\main.c
                       ui   0x0000a7       data     extern C:\Users\JUNIOR\Google Drive\Maua\Aplicada2-Pic\labintegrado2014\Firmware\controlador PI\main.c
                      ui0   0x0000a3       data     extern C:\Users\JUNIOR\Google Drive\Maua\Aplicada2-Pic\labintegrado2014\Firmware\controlador PI\main.c
                       up   0x0000ab       data     extern C:\Users\JUNIOR\Google Drive\Maua\Aplicada2-Pic\labintegrado2014\Firmware\controlador PI\main.c
                        x   0x00009b       data     extern C:\Users\JUNIOR\Google Drive\Maua\Aplicada2-Pic\labintegrado2014\Firmware\controlador PI\main.c
                   xtabhi   0x000095       data     extern C:\Users\JUNIOR\Google Drive\Maua\Aplicada2-Pic\labintegrado2014\Firmware\controlador PI\main.c
                  xtablow   0x000094       data     extern C:\Users\JUNIOR\Google Drive\Maua\Aplicada2-Pic\labintegrado2014\Firmware\controlador PI\main.c
                        y   0x00009d       data     extern C:\Users\JUNIOR\Google Drive\Maua\Aplicada2-Pic\labintegrado2014\Firmware\controlador PI\main.c



                              Symbols - Sorted by Address
                     Name    Address   Location    Storage File                     
                ---------  ---------  ---------  --------- ---------                
                   _entry   0x000000    program     extern E:\3.46\pic18-lt\cxx-framework\src\traditional\startup\c018i.c
       ___return_lbl00000   0x000004    program     static                          
                   __init   0x000006    program     extern E:\3.46\pic18-lt\cxx-framework\src\traditional\stdclib\__init.c
    vec_int_high_priority   0x000008    program     extern C:\Users\JUNIOR\Google Drive\Maua\Aplicada2-Pic\labintegrado2014\Firmware\controlador PI\main.c
       ___return_lbl00000   0x00000c    program     static                          
        ISR_High_Priority   0x00001c    program     extern C:\Users\JUNIOR\Google Drive\Maua\Aplicada2-Pic\labintegrado2014\Firmware\controlador PI\main.c
                     main   0x0002b2    program     extern C:\Users\JUNIOR\Google Drive\Maua\Aplicada2-Pic\labintegrado2014\Firmware\controlador PI\main.c
          escreve_comando   0x000342    program     extern C:\Users\JUNIOR\Google Drive\Maua\Aplicada2-Pic\labintegrado2014\Firmware\controlador PI\main.c
             escreve_dado   0x000394    program     extern C:\Users\JUNIOR\Google Drive\Maua\Aplicada2-Pic\labintegrado2014\Firmware\controlador PI\main.c
               inicia_lcd   0x0003e6    program     extern C:\Users\JUNIOR\Google Drive\Maua\Aplicada2-Pic\labintegrado2014\Firmware\controlador PI\main.c
                  decoder   0x00042c    program     extern C:\Users\JUNIOR\Google Drive\Maua\Aplicada2-Pic\labintegrado2014\Firmware\controlador PI\main.c
                    le_ad   0x000494    program     extern C:\Users\JUNIOR\Google Drive\Maua\Aplicada2-Pic\labintegrado2014\Firmware\controlador PI\main.c
                le_tabela   0x0004b0    program     extern C:\Users\JUNIOR\Google Drive\Maua\Aplicada2-Pic\labintegrado2014\Firmware\controlador PI\main.c
       ___return_lbl00025   0x000550    program     static                          
          exibe_tabelalcd   0x000552    program     extern C:\Users\JUNIOR\Google Drive\Maua\Aplicada2-Pic\labintegrado2014\Firmware\controlador PI\main.c
         exibe_referencia   0x0005c4    program     extern C:\Users\JUNIOR\Google Drive\Maua\Aplicada2-Pic\labintegrado2014\Firmware\controlador PI\main.c
                  teclado   0x00061e    program     extern C:\Users\JUNIOR\Google Drive\Maua\Aplicada2-Pic\labintegrado2014\Firmware\controlador PI\main.c
                 FLO1632U   0x00081a    program     extern E:\3.46\pic18-lt\cxx-framework\src\traditional\math\cast16FP.asm
                 FLO1632S   0x00081e    program     extern E:\3.46\pic18-lt\cxx-framework\src\traditional\math\cast16FP.asm
                jI2F16Beg   0x00082e    program     static E:\3.46\pic18-lt\cxx-framework\src\traditional\math\cast16FP.asm
                    FPS32   0x000844    program     extern E:\3.46\pic18-lt\cxx-framework\src\traditional\math\addFP.asm
                    FPA32   0x000846    program     extern E:\3.46\pic18-lt\cxx-framework\src\traditional\math\addFP.asm
                jBANotInf   0x000864    program     static E:\3.46\pic18-lt\cxx-framework\src\traditional\math\addFP.asm
                 jANotInf   0x00086e    program     static E:\3.46\pic18-lt\cxx-framework\src\traditional\math\addFP.asm
                 jBNotInf   0x00087c    program     static E:\3.46\pic18-lt\cxx-framework\src\traditional\math\addFP.asm
            jDifOrPosSign   0x000890    program     static E:\3.46\pic18-lt\cxx-framework\src\traditional\math\addFP.asm
             jNotBothZero   0x000894    program     static E:\3.46\pic18-lt\cxx-framework\src\traditional\math\addFP.asm
                 jAltBexp   0x0008c0    program     static E:\3.46\pic18-lt\cxx-framework\src\traditional\math\addFP.asm
              jAandWsetup   0x0008d2    program     static E:\3.46\pic18-lt\cxx-framework\src\traditional\math\addFP.asm
                 jANotNeg   0x000902    program     static E:\3.46\pic18-lt\cxx-framework\src\traditional\math\addFP.asm
                 jWNotNeg   0x000916    program     static E:\3.46\pic18-lt\cxx-framework\src\traditional\math\addFP.asm
               jShiftLoop   0x00091c    program     static E:\3.46\pic18-lt\cxx-framework\src\traditional\math\addFP.asm
               jShiftDone   0x00092a    program     static E:\3.46\pic18-lt\cxx-framework\src\traditional\math\addFP.asm
                jSignDone   0x00095a    program     static E:\3.46\pic18-lt\cxx-framework\src\traditional\math\addFP.asm
               jFinalSign   0x00096a    program     static E:\3.46\pic18-lt\cxx-framework\src\traditional\math\addFP.asm
                    FPM32   0x000972    program     extern E:\3.46\pic18-lt\cxx-framework\src\traditional\math\mulFP.asm
                 jANotInf   0x000990    program     static E:\3.46\pic18-lt\cxx-framework\src\traditional\math\mulFP.asm
              jBothFinite   0x00099e    program     static E:\3.46\pic18-lt\cxx-framework\src\traditional\math\mulFP.asm
                jHaveZero   0x0009a6    program     static E:\3.46\pic18-lt\cxx-framework\src\traditional\math\mulFP.asm
             jBothNotZero   0x0009aa    program     static E:\3.46\pic18-lt\cxx-framework\src\traditional\math\mulFP.asm
                 FXM1616S   0x000a4c    program     extern E:\3.46\pic18-lt\cxx-framework\src\traditional\math\fxm1616s.asm
               TSIGN1616A   0x000a98    program     static E:\3.46\pic18-lt\cxx-framework\src\traditional\math\fxm1616s.asm
                  INT3216   0x000aa6    program     extern E:\3.46\pic18-lt\cxx-framework\src\traditional\math\castFP16.asm
                     jMax   0x000ab6    program     static E:\3.46\pic18-lt\cxx-framework\src\traditional\math\castFP16.asm
                  jMaxPos   0x000aba    program     static E:\3.46\pic18-lt\cxx-framework\src\traditional\math\castFP16.asm
                  jMaxNeg   0x000ac4    program     static E:\3.46\pic18-lt\cxx-framework\src\traditional\math\castFP16.asm
                    jZero   0x000acc    program     static E:\3.46\pic18-lt\cxx-framework\src\traditional\math\castFP16.asm
                  jNotInf   0x000ad2    program     static E:\3.46\pic18-lt\cxx-framework\src\traditional\math\castFP16.asm
                    jLoop   0x000ae2    program     static E:\3.46\pic18-lt\cxx-framework\src\traditional\math\castFP16.asm
                jLoopExit   0x000af2    program     static E:\3.46\pic18-lt\cxx-framework\src\traditional\math\castFP16.asm
                    jExit   0x000b02    program     static E:\3.46\pic18-lt\cxx-framework\src\traditional\math\castFP16.asm
            __FpReturnNaN   0x000b04    program     extern E:\3.46\pic18-lt\cxx-framework\src\traditional\math\packFP.asm
                 __FpExit   0x000b10    program     extern E:\3.46\pic18-lt\cxx-framework\src\traditional\math\packFP.asm
        __FpReturnSignInf   0x000b12    program     extern E:\3.46\pic18-lt\cxx-framework\src\traditional\math\packFP.asm
         __FpReturnNegInf   0x000b16    program     extern E:\3.46\pic18-lt\cxx-framework\src\traditional\math\packFP.asm
         __FpReturnPosInf   0x000b1c    program     extern E:\3.46\pic18-lt\cxx-framework\src\traditional\math\packFP.asm
           jReturnPosInf0   0x000b20    program     static E:\3.46\pic18-lt\cxx-framework\src\traditional\math\packFP.asm
               jZero1and2   0x000b24    program     static E:\3.46\pic18-lt\cxx-framework\src\traditional\math\packFP.asm
       __FpReturnSignZero   0x000b2a    program     extern E:\3.46\pic18-lt\cxx-framework\src\traditional\math\packFP.asm
        __FpReturnNegZero   0x000b2e    program     extern E:\3.46\pic18-lt\cxx-framework\src\traditional\math\packFP.asm
        __FpReturnPosZero   0x000b36    program     extern E:\3.46\pic18-lt\cxx-framework\src\traditional\math\packFP.asm
                 __FpPack   0x000b3c    program     extern E:\3.46\pic18-lt\cxx-framework\src\traditional\math\packFP.asm
                  jPkLoop   0x000b4a    program     static E:\3.46\pic18-lt\cxx-framework\src\traditional\math\packFP.asm
             jPkShiftDone   0x000b66    program     static E:\3.46\pic18-lt\cxx-framework\src\traditional\math\packFP.asm
               jPkRoundIt   0x000b7c    program     static E:\3.46\pic18-lt\cxx-framework\src\traditional\math\packFP.asm
              __FpReturnW   0x000b94    program     extern E:\3.46\pic18-lt\cxx-framework\src\traditional\math\packFP.asm
             jPkRoundDone   0x000b94    program     static E:\3.46\pic18-lt\cxx-framework\src\traditional\math\packFP.asm
              __FpUnPackA   0x000bb4    program     extern E:\3.46\pic18-lt\cxx-framework\src\traditional\math\UnpackFP.asm
                  jUnpkA1   0x000bbe    program     static E:\3.46\pic18-lt\cxx-framework\src\traditional\math\UnpackFP.asm
                 jUnpkANZ   0x000bcc    program     static E:\3.46\pic18-lt\cxx-framework\src\traditional\math\UnpackFP.asm
                  jUnpkA2   0x000bd6    program     static E:\3.46\pic18-lt\cxx-framework\src\traditional\math\UnpackFP.asm
                 jUnpkNaN   0x000be0    program     static E:\3.46\pic18-lt\cxx-framework\src\traditional\math\UnpackFP.asm
              __FpUnPackB   0x000be4    program     extern E:\3.46\pic18-lt\cxx-framework\src\traditional\math\UnpackFP.asm
                  jUnpkB1   0x000bee    program     static E:\3.46\pic18-lt\cxx-framework\src\traditional\math\UnpackFP.asm
                 jUnpkBNZ   0x000bfc    program     static E:\3.46\pic18-lt\cxx-framework\src\traditional\math\UnpackFP.asm
                  jUnpkB2   0x000c06    program     static E:\3.46\pic18-lt\cxx-framework\src\traditional\math\UnpackFP.asm
                _do_cinit   0x000c10    program     extern E:\3.46\pic18-lt\cxx-framework\src\traditional\startup\c018i.c
                     test   0x000c2a    program     static                          
                copy_loop   0x000c82    program     static                          
            copy_one_byte   0x000c88    program     static                          
             done_copying   0x000c96    program     static                          
       ___return_lbl00002   0x000cac    program     static                          
                     done   0x000cac    program     static                          
                OpenUSART   0x000cae    program     extern E:\3.46\pic18-lt\cxx-framework\src\pmc_common\USART\uopen.c
                  OpenADC   0x000d38    program     extern E:\3.46\pic18-lt\cxx-framework\src\pmc_common\ADC\adcopen.c
                SetDCPWM1   0x000da6    program     extern E:\3.46\pic18-lt\cxx-framework\src\pmc_common\PWM\pw1setdc.c
                putsUSART   0x000e04    program     extern E:\3.46\pic18-lt\cxx-framework\src\pmc_common\USART\uputs.c
               OpenTimer0   0x000e50    program     extern E:\3.46\pic18-lt\cxx-framework\src\pmc_common\Timers\t0open.c
                 OpenPWM1   0x000e88    program     extern E:\3.46\pic18-lt\cxx-framework\src\pmc_common\PWM\pw1open.c
         OpenPWM1ConfigIO   0x000eb4    program     extern E:\3.46\pic18-lt\cxx-framework\src\pmc_common\PWM\pw1open.c
             Delay10KTCYx   0x000eb8    program     extern E:\3.46\pic18-lt\cxx-framework\src\traditional\delays\d10ktcyx.asm
                    D10Kx   0x000ec2    program     static E:\3.46\pic18-lt\cxx-framework\src\traditional\delays\d10ktcyx.asm
                   D10K_1   0x000ec4    program     static E:\3.46\pic18-lt\cxx-framework\src\traditional\delays\d10ktcyx.asm
       _D10KTCYXCODE_0010   0x000ec8    program     static E:\3.46\pic18-lt\cxx-framework\src\traditional\delays\d10ktcyx.asm
                    D10Kl   0x000ed0    program     static E:\3.46\pic18-lt\cxx-framework\src\traditional\delays\d10ktcyx.asm
       _D10KTCYXCODE_001C   0x000ed4    program     static E:\3.46\pic18-lt\cxx-framework\src\traditional\delays\d10ktcyx.asm
               WriteUSART   0x000ee6    program     extern E:\3.46\pic18-lt\cxx-framework\src\pmc_common\USART\uwrite.c
            __zero_memory   0x000f14    program     extern E:\3.46\pic18-lt\cxx-framework\src\traditional\proc\p18f4520.asm
                   loop_h   0x000f22    program     static E:\3.46\pic18-lt\cxx-framework\src\traditional\proc\p18f4520.asm
               zero_block   0x000f22    program     static E:\3.46\pic18-lt\cxx-framework\src\traditional\proc\p18f4520.asm
                compare_l   0x000f2a    program     static E:\3.46\pic18-lt\cxx-framework\src\traditional\proc\p18f4520.asm
                   loop_l   0x000f2c    program     static E:\3.46\pic18-lt\cxx-framework\src\traditional\proc\p18f4520.asm
                 _startup   0x000f34    program     extern E:\3.46\pic18-lt\cxx-framework\src\traditional\startup\c018i.c
                     loop   0x000f44    program     static                          
       ___return_lbl00001   0x000f4e    program     static                          
              Delay10TCYx   0x000f50    program     extern E:\3.46\pic18-lt\cxx-framework\src\traditional\delays\d10tcyx.asm
                     D10x   0x000f58    program     static E:\3.46\pic18-lt\cxx-framework\src\traditional\delays\d10tcyx.asm
        _D10TCYXCODE_000A   0x000f5a    program     static E:\3.46\pic18-lt\cxx-framework\src\traditional\delays\d10tcyx.asm
        _D10TCYXCODE_000C   0x000f5c    program     static E:\3.46\pic18-lt\cxx-framework\src\traditional\delays\d10tcyx.asm
        _D10TCYXCODE_000E   0x000f5e    program     static E:\3.46\pic18-lt\cxx-framework\src\traditional\delays\d10tcyx.asm
                    D10_1   0x000f60    program     static E:\3.46\pic18-lt\cxx-framework\src\traditional\delays\d10tcyx.asm
                  ReadADC   0x000f66    program     extern E:\3.46\pic18-lt\cxx-framework\src\pmc_common\ADC\adcread.c
                  BusyADC   0x000f78    program     extern E:\3.46\pic18-lt\cxx-framework\src\pmc_common\ADC\adcbusy.c
               ConvertADC   0x000f82    program     extern E:\3.46\pic18-lt\cxx-framework\src\pmc_common\ADC\adcconv.c
                      as0   0x002000    program     extern C:\Users\JUNIOR\Google Drive\Maua\Aplicada2-Pic\labintegrado2014\Firmware\controlador PI\main.c
                       a1   0x002002    program     extern C:\Users\JUNIOR\Google Drive\Maua\Aplicada2-Pic\labintegrado2014\Firmware\controlador PI\main.c
                       a2   0x002004    program     extern C:\Users\JUNIOR\Google Drive\Maua\Aplicada2-Pic\labintegrado2014\Firmware\controlador PI\main.c
                       a3   0x002006    program     extern C:\Users\JUNIOR\Google Drive\Maua\Aplicada2-Pic\labintegrado2014\Firmware\controlador PI\main.c
                       a4   0x002008    program     extern C:\Users\JUNIOR\Google Drive\Maua\Aplicada2-Pic\labintegrado2014\Firmware\controlador PI\main.c
                       a5   0x00200a    program     extern C:\Users\JUNIOR\Google Drive\Maua\Aplicada2-Pic\labintegrado2014\Firmware\controlador PI\main.c
                       a6   0x00200c    program     extern C:\Users\JUNIOR\Google Drive\Maua\Aplicada2-Pic\labintegrado2014\Firmware\controlador PI\main.c
                       a7   0x00200e    program     extern C:\Users\JUNIOR\Google Drive\Maua\Aplicada2-Pic\labintegrado2014\Firmware\controlador PI\main.c
                       a8   0x002010    program     extern C:\Users\JUNIOR\Google Drive\Maua\Aplicada2-Pic\labintegrado2014\Firmware\controlador PI\main.c
                       a9   0x002012    program     extern C:\Users\JUNIOR\Google Drive\Maua\Aplicada2-Pic\labintegrado2014\Firmware\controlador PI\main.c
                      a10   0x002014    program     extern C:\Users\JUNIOR\Google Drive\Maua\Aplicada2-Pic\labintegrado2014\Firmware\controlador PI\main.c
                      a11   0x002016    program     extern C:\Users\JUNIOR\Google Drive\Maua\Aplicada2-Pic\labintegrado2014\Firmware\controlador PI\main.c
                      a12   0x002018    program     extern C:\Users\JUNIOR\Google Drive\Maua\Aplicada2-Pic\labintegrado2014\Firmware\controlador PI\main.c
                      a13   0x00201a    program     extern C:\Users\JUNIOR\Google Drive\Maua\Aplicada2-Pic\labintegrado2014\Firmware\controlador PI\main.c
                      a14   0x00201c    program     extern C:\Users\JUNIOR\Google Drive\Maua\Aplicada2-Pic\labintegrado2014\Firmware\controlador PI\main.c
                      a15   0x00201e    program     extern C:\Users\JUNIOR\Google Drive\Maua\Aplicada2-Pic\labintegrado2014\Firmware\controlador PI\main.c
                      a16   0x002020    program     extern C:\Users\JUNIOR\Google Drive\Maua\Aplicada2-Pic\labintegrado2014\Firmware\controlador PI\main.c
                      a17   0x002022    program     extern C:\Users\JUNIOR\Google Drive\Maua\Aplicada2-Pic\labintegrado2014\Firmware\controlador PI\main.c
                      a18   0x002024    program     extern C:\Users\JUNIOR\Google Drive\Maua\Aplicada2-Pic\labintegrado2014\Firmware\controlador PI\main.c
                      a19   0x002026    program     extern C:\Users\JUNIOR\Google Drive\Maua\Aplicada2-Pic\labintegrado2014\Firmware\controlador PI\main.c
                      a20   0x002028    program     extern C:\Users\JUNIOR\Google Drive\Maua\Aplicada2-Pic\labintegrado2014\Firmware\controlador PI\main.c
                      a21   0x00202a    program     extern C:\Users\JUNIOR\Google Drive\Maua\Aplicada2-Pic\labintegrado2014\Firmware\controlador PI\main.c
                      a22   0x00202c    program     extern C:\Users\JUNIOR\Google Drive\Maua\Aplicada2-Pic\labintegrado2014\Firmware\controlador PI\main.c
                      a23   0x00202e    program     extern C:\Users\JUNIOR\Google Drive\Maua\Aplicada2-Pic\labintegrado2014\Firmware\controlador PI\main.c
                      a24   0x002030    program     extern C:\Users\JUNIOR\Google Drive\Maua\Aplicada2-Pic\labintegrado2014\Firmware\controlador PI\main.c
                      a25   0x002032    program     extern C:\Users\JUNIOR\Google Drive\Maua\Aplicada2-Pic\labintegrado2014\Firmware\controlador PI\main.c
                      a26   0x002034    program     extern C:\Users\JUNIOR\Google Drive\Maua\Aplicada2-Pic\labintegrado2014\Firmware\controlador PI\main.c
                      a27   0x002036    program     extern C:\Users\JUNIOR\Google Drive\Maua\Aplicada2-Pic\labintegrado2014\Firmware\controlador PI\main.c
                      a28   0x002038    program     extern C:\Users\JUNIOR\Google Drive\Maua\Aplicada2-Pic\labintegrado2014\Firmware\controlador PI\main.c
                      a29   0x00203a    program     extern C:\Users\JUNIOR\Google Drive\Maua\Aplicada2-Pic\labintegrado2014\Firmware\controlador PI\main.c
                      a30   0x00203c    program     extern C:\Users\JUNIOR\Google Drive\Maua\Aplicada2-Pic\labintegrado2014\Firmware\controlador PI\main.c
                      a31   0x00203e    program     extern C:\Users\JUNIOR\Google Drive\Maua\Aplicada2-Pic\labintegrado2014\Firmware\controlador PI\main.c
                      a32   0x002040    program     extern C:\Users\JUNIOR\Google Drive\Maua\Aplicada2-Pic\labintegrado2014\Firmware\controlador PI\main.c
                      a33   0x002042    program     extern C:\Users\JUNIOR\Google Drive\Maua\Aplicada2-Pic\labintegrado2014\Firmware\controlador PI\main.c
                      a34   0x002044    program     extern C:\Users\JUNIOR\Google Drive\Maua\Aplicada2-Pic\labintegrado2014\Firmware\controlador PI\main.c
                      a35   0x002046    program     extern C:\Users\JUNIOR\Google Drive\Maua\Aplicada2-Pic\labintegrado2014\Firmware\controlador PI\main.c
                      a36   0x002048    program     extern C:\Users\JUNIOR\Google Drive\Maua\Aplicada2-Pic\labintegrado2014\Firmware\controlador PI\main.c
                      a37   0x00204a    program     extern C:\Users\JUNIOR\Google Drive\Maua\Aplicada2-Pic\labintegrado2014\Firmware\controlador PI\main.c
                      a38   0x00204c    program     extern C:\Users\JUNIOR\Google Drive\Maua\Aplicada2-Pic\labintegrado2014\Firmware\controlador PI\main.c
                      a39   0x00204e    program     extern C:\Users\JUNIOR\Google Drive\Maua\Aplicada2-Pic\labintegrado2014\Firmware\controlador PI\main.c
                      a40   0x002050    program     extern C:\Users\JUNIOR\Google Drive\Maua\Aplicada2-Pic\labintegrado2014\Firmware\controlador PI\main.c
                      a41   0x002052    program     extern C:\Users\JUNIOR\Google Drive\Maua\Aplicada2-Pic\labintegrado2014\Firmware\controlador PI\main.c
                      a42   0x002054    program     extern C:\Users\JUNIOR\Google Drive\Maua\Aplicada2-Pic\labintegrado2014\Firmware\controlador PI\main.c
                      a43   0x002056    program     extern C:\Users\JUNIOR\Google Drive\Maua\Aplicada2-Pic\labintegrado2014\Firmware\controlador PI\main.c
                      a44   0x002058    program     extern C:\Users\JUNIOR\Google Drive\Maua\Aplicada2-Pic\labintegrado2014\Firmware\controlador PI\main.c
                      a45   0x00205a    program     extern C:\Users\JUNIOR\Google Drive\Maua\Aplicada2-Pic\labintegrado2014\Firmware\controlador PI\main.c
                      a46   0x00205c    program     extern C:\Users\JUNIOR\Google Drive\Maua\Aplicada2-Pic\labintegrado2014\Firmware\controlador PI\main.c
                      a47   0x00205e    program     extern C:\Users\JUNIOR\Google Drive\Maua\Aplicada2-Pic\labintegrado2014\Firmware\controlador PI\main.c
                      a48   0x002060    program     extern C:\Users\JUNIOR\Google Drive\Maua\Aplicada2-Pic\labintegrado2014\Firmware\controlador PI\main.c
                      a49   0x002062    program     extern C:\Users\JUNIOR\Google Drive\Maua\Aplicada2-Pic\labintegrado2014\Firmware\controlador PI\main.c
                      a50   0x002064    program     extern C:\Users\JUNIOR\Google Drive\Maua\Aplicada2-Pic\labintegrado2014\Firmware\controlador PI\main.c
                      a51   0x002066    program     extern C:\Users\JUNIOR\Google Drive\Maua\Aplicada2-Pic\labintegrado2014\Firmware\controlador PI\main.c
                      a52   0x002068    program     extern C:\Users\JUNIOR\Google Drive\Maua\Aplicada2-Pic\labintegrado2014\Firmware\controlador PI\main.c
                      a53   0x00206a    program     extern C:\Users\JUNIOR\Google Drive\Maua\Aplicada2-Pic\labintegrado2014\Firmware\controlador PI\main.c
                      a54   0x00206c    program     extern C:\Users\JUNIOR\Google Drive\Maua\Aplicada2-Pic\labintegrado2014\Firmware\controlador PI\main.c
                      a55   0x00206e    program     extern C:\Users\JUNIOR\Google Drive\Maua\Aplicada2-Pic\labintegrado2014\Firmware\controlador PI\main.c
                      a56   0x002070    program     extern C:\Users\JUNIOR\Google Drive\Maua\Aplicada2-Pic\labintegrado2014\Firmware\controlador PI\main.c
                      a57   0x002072    program     extern C:\Users\JUNIOR\Google Drive\Maua\Aplicada2-Pic\labintegrado2014\Firmware\controlador PI\main.c
                      a58   0x002074    program     extern C:\Users\JUNIOR\Google Drive\Maua\Aplicada2-Pic\labintegrado2014\Firmware\controlador PI\main.c
                      a59   0x002076    program     extern C:\Users\JUNIOR\Google Drive\Maua\Aplicada2-Pic\labintegrado2014\Firmware\controlador PI\main.c
                      a60   0x002078    program     extern C:\Users\JUNIOR\Google Drive\Maua\Aplicada2-Pic\labintegrado2014\Firmware\controlador PI\main.c
                      a61   0x00207a    program     extern C:\Users\JUNIOR\Google Drive\Maua\Aplicada2-Pic\labintegrado2014\Firmware\controlador PI\main.c
                      a62   0x00207c    program     extern C:\Users\JUNIOR\Google Drive\Maua\Aplicada2-Pic\labintegrado2014\Firmware\controlador PI\main.c
                      a63   0x00207e    program     extern C:\Users\JUNIOR\Google Drive\Maua\Aplicada2-Pic\labintegrado2014\Firmware\controlador PI\main.c
                      a64   0x002080    program     extern C:\Users\JUNIOR\Google Drive\Maua\Aplicada2-Pic\labintegrado2014\Firmware\controlador PI\main.c
                      a65   0x002082    program     extern C:\Users\JUNIOR\Google Drive\Maua\Aplicada2-Pic\labintegrado2014\Firmware\controlador PI\main.c
                      a66   0x002084    program     extern C:\Users\JUNIOR\Google Drive\Maua\Aplicada2-Pic\labintegrado2014\Firmware\controlador PI\main.c
                      a67   0x002086    program     extern C:\Users\JUNIOR\Google Drive\Maua\Aplicada2-Pic\labintegrado2014\Firmware\controlador PI\main.c
                      a68   0x002088    program     extern C:\Users\JUNIOR\Google Drive\Maua\Aplicada2-Pic\labintegrado2014\Firmware\controlador PI\main.c
                      a69   0x00208a    program     extern C:\Users\JUNIOR\Google Drive\Maua\Aplicada2-Pic\labintegrado2014\Firmware\controlador PI\main.c
                      a70   0x00208c    program     extern C:\Users\JUNIOR\Google Drive\Maua\Aplicada2-Pic\labintegrado2014\Firmware\controlador PI\main.c
                      a71   0x00208e    program     extern C:\Users\JUNIOR\Google Drive\Maua\Aplicada2-Pic\labintegrado2014\Firmware\controlador PI\main.c
                      a72   0x002090    program     extern C:\Users\JUNIOR\Google Drive\Maua\Aplicada2-Pic\labintegrado2014\Firmware\controlador PI\main.c
                      a73   0x002092    program     extern C:\Users\JUNIOR\Google Drive\Maua\Aplicada2-Pic\labintegrado2014\Firmware\controlador PI\main.c
                      a74   0x002094    program     extern C:\Users\JUNIOR\Google Drive\Maua\Aplicada2-Pic\labintegrado2014\Firmware\controlador PI\main.c
                      a75   0x002096    program     extern C:\Users\JUNIOR\Google Drive\Maua\Aplicada2-Pic\labintegrado2014\Firmware\controlador PI\main.c
                      a76   0x002098    program     extern C:\Users\JUNIOR\Google Drive\Maua\Aplicada2-Pic\labintegrado2014\Firmware\controlador PI\main.c
                      a77   0x00209a    program     extern C:\Users\JUNIOR\Google Drive\Maua\Aplicada2-Pic\labintegrado2014\Firmware\controlador PI\main.c
                      a78   0x00209c    program     extern C:\Users\JUNIOR\Google Drive\Maua\Aplicada2-Pic\labintegrado2014\Firmware\controlador PI\main.c
                      a79   0x00209e    program     extern C:\Users\JUNIOR\Google Drive\Maua\Aplicada2-Pic\labintegrado2014\Firmware\controlador PI\main.c
                      a80   0x0020a0    program     extern C:\Users\JUNIOR\Google Drive\Maua\Aplicada2-Pic\labintegrado2014\Firmware\controlador PI\main.c
                      a81   0x0020a2    program     extern C:\Users\JUNIOR\Google Drive\Maua\Aplicada2-Pic\labintegrado2014\Firmware\controlador PI\main.c
                      a82   0x0020a4    program     extern C:\Users\JUNIOR\Google Drive\Maua\Aplicada2-Pic\labintegrado2014\Firmware\controlador PI\main.c
                      a83   0x0020a6    program     extern C:\Users\JUNIOR\Google Drive\Maua\Aplicada2-Pic\labintegrado2014\Firmware\controlador PI\main.c
                      a84   0x0020a8    program     extern C:\Users\JUNIOR\Google Drive\Maua\Aplicada2-Pic\labintegrado2014\Firmware\controlador PI\main.c
                      a85   0x0020aa    program     extern C:\Users\JUNIOR\Google Drive\Maua\Aplicada2-Pic\labintegrado2014\Firmware\controlador PI\main.c
                      a86   0x0020ac    program     extern C:\Users\JUNIOR\Google Drive\Maua\Aplicada2-Pic\labintegrado2014\Firmware\controlador PI\main.c
                      a87   0x0020ae    program     extern C:\Users\JUNIOR\Google Drive\Maua\Aplicada2-Pic\labintegrado2014\Firmware\controlador PI\main.c
                      a88   0x0020b0    program     extern C:\Users\JUNIOR\Google Drive\Maua\Aplicada2-Pic\labintegrado2014\Firmware\controlador PI\main.c
                      a89   0x0020b2    program     extern C:\Users\JUNIOR\Google Drive\Maua\Aplicada2-Pic\labintegrado2014\Firmware\controlador PI\main.c
                      a90   0x0020b4    program     extern C:\Users\JUNIOR\Google Drive\Maua\Aplicada2-Pic\labintegrado2014\Firmware\controlador PI\main.c
                      a91   0x0020b6    program     extern C:\Users\JUNIOR\Google Drive\Maua\Aplicada2-Pic\labintegrado2014\Firmware\controlador PI\main.c
                      a92   0x0020b8    program     extern C:\Users\JUNIOR\Google Drive\Maua\Aplicada2-Pic\labintegrado2014\Firmware\controlador PI\main.c
                      a93   0x0020ba    program     extern C:\Users\JUNIOR\Google Drive\Maua\Aplicada2-Pic\labintegrado2014\Firmware\controlador PI\main.c
                      a94   0x0020bc    program     extern C:\Users\JUNIOR\Google Drive\Maua\Aplicada2-Pic\labintegrado2014\Firmware\controlador PI\main.c
                      a95   0x0020be    program     extern C:\Users\JUNIOR\Google Drive\Maua\Aplicada2-Pic\labintegrado2014\Firmware\controlador PI\main.c
                      a96   0x0020c0    program     extern C:\Users\JUNIOR\Google Drive\Maua\Aplicada2-Pic\labintegrado2014\Firmware\controlador PI\main.c
                      a97   0x0020c2    program     extern C:\Users\JUNIOR\Google Drive\Maua\Aplicada2-Pic\labintegrado2014\Firmware\controlador PI\main.c
                      a98   0x0020c4    program     extern C:\Users\JUNIOR\Google Drive\Maua\Aplicada2-Pic\labintegrado2014\Firmware\controlador PI\main.c
                      a99   0x0020c6    program     extern C:\Users\JUNIOR\Google Drive\Maua\Aplicada2-Pic\labintegrado2014\Firmware\controlador PI\main.c
                     a100   0x0020c8    program     extern C:\Users\JUNIOR\Google Drive\Maua\Aplicada2-Pic\labintegrado2014\Firmware\controlador PI\main.c
                     a101   0x0020ca    program     extern C:\Users\JUNIOR\Google Drive\Maua\Aplicada2-Pic\labintegrado2014\Firmware\controlador PI\main.c
                     a102   0x0020cc    program     extern C:\Users\JUNIOR\Google Drive\Maua\Aplicada2-Pic\labintegrado2014\Firmware\controlador PI\main.c
                     a103   0x0020ce    program     extern C:\Users\JUNIOR\Google Drive\Maua\Aplicada2-Pic\labintegrado2014\Firmware\controlador PI\main.c
                     a104   0x0020d0    program     extern C:\Users\JUNIOR\Google Drive\Maua\Aplicada2-Pic\labintegrado2014\Firmware\controlador PI\main.c
                     a105   0x0020d2    program     extern C:\Users\JUNIOR\Google Drive\Maua\Aplicada2-Pic\labintegrado2014\Firmware\controlador PI\main.c
                     a106   0x0020d4    program     extern C:\Users\JUNIOR\Google Drive\Maua\Aplicada2-Pic\labintegrado2014\Firmware\controlador PI\main.c
                     a107   0x0020d6    program     extern C:\Users\JUNIOR\Google Drive\Maua\Aplicada2-Pic\labintegrado2014\Firmware\controlador PI\main.c
                     a108   0x0020d8    program     extern C:\Users\JUNIOR\Google Drive\Maua\Aplicada2-Pic\labintegrado2014\Firmware\controlador PI\main.c
                     a109   0x0020da    program     extern C:\Users\JUNIOR\Google Drive\Maua\Aplicada2-Pic\labintegrado2014\Firmware\controlador PI\main.c
                     a110   0x0020dc    program     extern C:\Users\JUNIOR\Google Drive\Maua\Aplicada2-Pic\labintegrado2014\Firmware\controlador PI\main.c
                     a111   0x0020de    program     extern C:\Users\JUNIOR\Google Drive\Maua\Aplicada2-Pic\labintegrado2014\Firmware\controlador PI\main.c
                     a112   0x0020e0    program     extern C:\Users\JUNIOR\Google Drive\Maua\Aplicada2-Pic\labintegrado2014\Firmware\controlador PI\main.c
                     a113   0x0020e2    program     extern C:\Users\JUNIOR\Google Drive\Maua\Aplicada2-Pic\labintegrado2014\Firmware\controlador PI\main.c
                     a114   0x0020e4    program     extern C:\Users\JUNIOR\Google Drive\Maua\Aplicada2-Pic\labintegrado2014\Firmware\controlador PI\main.c
                     a115   0x0020e6    program     extern C:\Users\JUNIOR\Google Drive\Maua\Aplicada2-Pic\labintegrado2014\Firmware\controlador PI\main.c
                     a116   0x0020e8    program     extern C:\Users\JUNIOR\Google Drive\Maua\Aplicada2-Pic\labintegrado2014\Firmware\controlador PI\main.c
                     a117   0x0020ea    program     extern C:\Users\JUNIOR\Google Drive\Maua\Aplicada2-Pic\labintegrado2014\Firmware\controlador PI\main.c
                     a118   0x0020ec    program     extern C:\Users\JUNIOR\Google Drive\Maua\Aplicada2-Pic\labintegrado2014\Firmware\controlador PI\main.c
                     a119   0x0020ee    program     extern C:\Users\JUNIOR\Google Drive\Maua\Aplicada2-Pic\labintegrado2014\Firmware\controlador PI\main.c
                     a120   0x0020f0    program     extern C:\Users\JUNIOR\Google Drive\Maua\Aplicada2-Pic\labintegrado2014\Firmware\controlador PI\main.c
                     a121   0x0020f2    program     extern C:\Users\JUNIOR\Google Drive\Maua\Aplicada2-Pic\labintegrado2014\Firmware\controlador PI\main.c
                     a122   0x0020f4    program     extern C:\Users\JUNIOR\Google Drive\Maua\Aplicada2-Pic\labintegrado2014\Firmware\controlador PI\main.c
                     a123   0x0020f6    program     extern C:\Users\JUNIOR\Google Drive\Maua\Aplicada2-Pic\labintegrado2014\Firmware\controlador PI\main.c
                     a124   0x0020f8    program     extern C:\Users\JUNIOR\Google Drive\Maua\Aplicada2-Pic\labintegrado2014\Firmware\controlador PI\main.c
                     a125   0x0020fa    program     extern C:\Users\JUNIOR\Google Drive\Maua\Aplicada2-Pic\labintegrado2014\Firmware\controlador PI\main.c
                     a126   0x0020fc    program     extern C:\Users\JUNIOR\Google Drive\Maua\Aplicada2-Pic\labintegrado2014\Firmware\controlador PI\main.c
                     a127   0x0020fe    program     extern C:\Users\JUNIOR\Google Drive\Maua\Aplicada2-Pic\labintegrado2014\Firmware\controlador PI\main.c
                     a128   0x002100    program     extern C:\Users\JUNIOR\Google Drive\Maua\Aplicada2-Pic\labintegrado2014\Firmware\controlador PI\main.c
                     a129   0x002102    program     extern C:\Users\JUNIOR\Google Drive\Maua\Aplicada2-Pic\labintegrado2014\Firmware\controlador PI\main.c
                     a130   0x002104    program     extern C:\Users\JUNIOR\Google Drive\Maua\Aplicada2-Pic\labintegrado2014\Firmware\controlador PI\main.c
                     a131   0x002106    program     extern C:\Users\JUNIOR\Google Drive\Maua\Aplicada2-Pic\labintegrado2014\Firmware\controlador PI\main.c
                     a132   0x002108    program     extern C:\Users\JUNIOR\Google Drive\Maua\Aplicada2-Pic\labintegrado2014\Firmware\controlador PI\main.c
                     a133   0x00210a    program     extern C:\Users\JUNIOR\Google Drive\Maua\Aplicada2-Pic\labintegrado2014\Firmware\controlador PI\main.c
                     a134   0x00210c    program     extern C:\Users\JUNIOR\Google Drive\Maua\Aplicada2-Pic\labintegrado2014\Firmware\controlador PI\main.c
                     a135   0x00210e    program     extern C:\Users\JUNIOR\Google Drive\Maua\Aplicada2-Pic\labintegrado2014\Firmware\controlador PI\main.c
                     a136   0x002110    program     extern C:\Users\JUNIOR\Google Drive\Maua\Aplicada2-Pic\labintegrado2014\Firmware\controlador PI\main.c
                     a137   0x002112    program     extern C:\Users\JUNIOR\Google Drive\Maua\Aplicada2-Pic\labintegrado2014\Firmware\controlador PI\main.c
                     a138   0x002114    program     extern C:\Users\JUNIOR\Google Drive\Maua\Aplicada2-Pic\labintegrado2014\Firmware\controlador PI\main.c
                     a139   0x002116    program     extern C:\Users\JUNIOR\Google Drive\Maua\Aplicada2-Pic\labintegrado2014\Firmware\controlador PI\main.c
                     a140   0x002118    program     extern C:\Users\JUNIOR\Google Drive\Maua\Aplicada2-Pic\labintegrado2014\Firmware\controlador PI\main.c
                     a141   0x00211a    program     extern C:\Users\JUNIOR\Google Drive\Maua\Aplicada2-Pic\labintegrado2014\Firmware\controlador PI\main.c
                     a142   0x00211c    program     extern C:\Users\JUNIOR\Google Drive\Maua\Aplicada2-Pic\labintegrado2014\Firmware\controlador PI\main.c
                     a143   0x00211e    program     extern C:\Users\JUNIOR\Google Drive\Maua\Aplicada2-Pic\labintegrado2014\Firmware\controlador PI\main.c
                     a144   0x002120    program     extern C:\Users\JUNIOR\Google Drive\Maua\Aplicada2-Pic\labintegrado2014\Firmware\controlador PI\main.c
                     a145   0x002122    program     extern C:\Users\JUNIOR\Google Drive\Maua\Aplicada2-Pic\labintegrado2014\Firmware\controlador PI\main.c
                     a146   0x002124    program     extern C:\Users\JUNIOR\Google Drive\Maua\Aplicada2-Pic\labintegrado2014\Firmware\controlador PI\main.c
                     a147   0x002126    program     extern C:\Users\JUNIOR\Google Drive\Maua\Aplicada2-Pic\labintegrado2014\Firmware\controlador PI\main.c
                     a148   0x002128    program     extern C:\Users\JUNIOR\Google Drive\Maua\Aplicada2-Pic\labintegrado2014\Firmware\controlador PI\main.c
                     a149   0x00212a    program     extern C:\Users\JUNIOR\Google Drive\Maua\Aplicada2-Pic\labintegrado2014\Firmware\controlador PI\main.c
                     a150   0x00212c    program     extern C:\Users\JUNIOR\Google Drive\Maua\Aplicada2-Pic\labintegrado2014\Firmware\controlador PI\main.c
                     a151   0x00212e    program     extern C:\Users\JUNIOR\Google Drive\Maua\Aplicada2-Pic\labintegrado2014\Firmware\controlador PI\main.c
                     a152   0x002130    program     extern C:\Users\JUNIOR\Google Drive\Maua\Aplicada2-Pic\labintegrado2014\Firmware\controlador PI\main.c
                     a153   0x002132    program     extern C:\Users\JUNIOR\Google Drive\Maua\Aplicada2-Pic\labintegrado2014\Firmware\controlador PI\main.c
                     a154   0x002134    program     extern C:\Users\JUNIOR\Google Drive\Maua\Aplicada2-Pic\labintegrado2014\Firmware\controlador PI\main.c
                     a155   0x002136    program     extern C:\Users\JUNIOR\Google Drive\Maua\Aplicada2-Pic\labintegrado2014\Firmware\controlador PI\main.c
                     a156   0x002138    program     extern C:\Users\JUNIOR\Google Drive\Maua\Aplicada2-Pic\labintegrado2014\Firmware\controlador PI\main.c
                     a157   0x00213a    program     extern C:\Users\JUNIOR\Google Drive\Maua\Aplicada2-Pic\labintegrado2014\Firmware\controlador PI\main.c
                     a158   0x00213c    program     extern C:\Users\JUNIOR\Google Drive\Maua\Aplicada2-Pic\labintegrado2014\Firmware\controlador PI\main.c
                     a159   0x00213e    program     extern C:\Users\JUNIOR\Google Drive\Maua\Aplicada2-Pic\labintegrado2014\Firmware\controlador PI\main.c
                     a160   0x002140    program     extern C:\Users\JUNIOR\Google Drive\Maua\Aplicada2-Pic\labintegrado2014\Firmware\controlador PI\main.c
                     a161   0x002142    program     extern C:\Users\JUNIOR\Google Drive\Maua\Aplicada2-Pic\labintegrado2014\Firmware\controlador PI\main.c
                     a162   0x002144    program     extern C:\Users\JUNIOR\Google Drive\Maua\Aplicada2-Pic\labintegrado2014\Firmware\controlador PI\main.c
                     a163   0x002146    program     extern C:\Users\JUNIOR\Google Drive\Maua\Aplicada2-Pic\labintegrado2014\Firmware\controlador PI\main.c
                     a164   0x002148    program     extern C:\Users\JUNIOR\Google Drive\Maua\Aplicada2-Pic\labintegrado2014\Firmware\controlador PI\main.c
                     a165   0x00214a    program     extern C:\Users\JUNIOR\Google Drive\Maua\Aplicada2-Pic\labintegrado2014\Firmware\controlador PI\main.c
                     a166   0x00214c    program     extern C:\Users\JUNIOR\Google Drive\Maua\Aplicada2-Pic\labintegrado2014\Firmware\controlador PI\main.c
                     a167   0x00214e    program     extern C:\Users\JUNIOR\Google Drive\Maua\Aplicada2-Pic\labintegrado2014\Firmware\controlador PI\main.c
                     a168   0x002150    program     extern C:\Users\JUNIOR\Google Drive\Maua\Aplicada2-Pic\labintegrado2014\Firmware\controlador PI\main.c
                     a169   0x002152    program     extern C:\Users\JUNIOR\Google Drive\Maua\Aplicada2-Pic\labintegrado2014\Firmware\controlador PI\main.c
                     a170   0x002154    program     extern C:\Users\JUNIOR\Google Drive\Maua\Aplicada2-Pic\labintegrado2014\Firmware\controlador PI\main.c
                     a171   0x002156    program     extern C:\Users\JUNIOR\Google Drive\Maua\Aplicada2-Pic\labintegrado2014\Firmware\controlador PI\main.c
                     a172   0x002158    program     extern C:\Users\JUNIOR\Google Drive\Maua\Aplicada2-Pic\labintegrado2014\Firmware\controlador PI\main.c
                     a173   0x00215a    program     extern C:\Users\JUNIOR\Google Drive\Maua\Aplicada2-Pic\labintegrado2014\Firmware\controlador PI\main.c
                     a174   0x00215c    program     extern C:\Users\JUNIOR\Google Drive\Maua\Aplicada2-Pic\labintegrado2014\Firmware\controlador PI\main.c
                     a175   0x00215e    program     extern C:\Users\JUNIOR\Google Drive\Maua\Aplicada2-Pic\labintegrado2014\Firmware\controlador PI\main.c
                     a176   0x002160    program     extern C:\Users\JUNIOR\Google Drive\Maua\Aplicada2-Pic\labintegrado2014\Firmware\controlador PI\main.c
                     a177   0x002162    program     extern C:\Users\JUNIOR\Google Drive\Maua\Aplicada2-Pic\labintegrado2014\Firmware\controlador PI\main.c
                     a178   0x002164    program     extern C:\Users\JUNIOR\Google Drive\Maua\Aplicada2-Pic\labintegrado2014\Firmware\controlador PI\main.c
                     a179   0x002166    program     extern C:\Users\JUNIOR\Google Drive\Maua\Aplicada2-Pic\labintegrado2014\Firmware\controlador PI\main.c
                     a180   0x002168    program     extern C:\Users\JUNIOR\Google Drive\Maua\Aplicada2-Pic\labintegrado2014\Firmware\controlador PI\main.c
                     a181   0x00216a    program     extern C:\Users\JUNIOR\Google Drive\Maua\Aplicada2-Pic\labintegrado2014\Firmware\controlador PI\main.c
                     a182   0x00216c    program     extern C:\Users\JUNIOR\Google Drive\Maua\Aplicada2-Pic\labintegrado2014\Firmware\controlador PI\main.c
                     a183   0x00216e    program     extern C:\Users\JUNIOR\Google Drive\Maua\Aplicada2-Pic\labintegrado2014\Firmware\controlador PI\main.c
                     a184   0x002170    program     extern C:\Users\JUNIOR\Google Drive\Maua\Aplicada2-Pic\labintegrado2014\Firmware\controlador PI\main.c
                     a185   0x002172    program     extern C:\Users\JUNIOR\Google Drive\Maua\Aplicada2-Pic\labintegrado2014\Firmware\controlador PI\main.c
                     a186   0x002174    program     extern C:\Users\JUNIOR\Google Drive\Maua\Aplicada2-Pic\labintegrado2014\Firmware\controlador PI\main.c
                     a187   0x002176    program     extern C:\Users\JUNIOR\Google Drive\Maua\Aplicada2-Pic\labintegrado2014\Firmware\controlador PI\main.c
                     a188   0x002178    program     extern C:\Users\JUNIOR\Google Drive\Maua\Aplicada2-Pic\labintegrado2014\Firmware\controlador PI\main.c
                     a189   0x00217a    program     extern C:\Users\JUNIOR\Google Drive\Maua\Aplicada2-Pic\labintegrado2014\Firmware\controlador PI\main.c
                     a190   0x00217c    program     extern C:\Users\JUNIOR\Google Drive\Maua\Aplicada2-Pic\labintegrado2014\Firmware\controlador PI\main.c
                     a191   0x00217e    program     extern C:\Users\JUNIOR\Google Drive\Maua\Aplicada2-Pic\labintegrado2014\Firmware\controlador PI\main.c
                     a192   0x002180    program     extern C:\Users\JUNIOR\Google Drive\Maua\Aplicada2-Pic\labintegrado2014\Firmware\controlador PI\main.c
                     a193   0x002182    program     extern C:\Users\JUNIOR\Google Drive\Maua\Aplicada2-Pic\labintegrado2014\Firmware\controlador PI\main.c
                     a194   0x002184    program     extern C:\Users\JUNIOR\Google Drive\Maua\Aplicada2-Pic\labintegrado2014\Firmware\controlador PI\main.c
                     a195   0x002186    program     extern C:\Users\JUNIOR\Google Drive\Maua\Aplicada2-Pic\labintegrado2014\Firmware\controlador PI\main.c
                     a196   0x002188    program     extern C:\Users\JUNIOR\Google Drive\Maua\Aplicada2-Pic\labintegrado2014\Firmware\controlador PI\main.c
                     a197   0x00218a    program     extern C:\Users\JUNIOR\Google Drive\Maua\Aplicada2-Pic\labintegrado2014\Firmware\controlador PI\main.c
                     a198   0x00218c    program     extern C:\Users\JUNIOR\Google Drive\Maua\Aplicada2-Pic\labintegrado2014\Firmware\controlador PI\main.c
                     a199   0x00218e    program     extern C:\Users\JUNIOR\Google Drive\Maua\Aplicada2-Pic\labintegrado2014\Firmware\controlador PI\main.c
                     a200   0x002190    program     extern C:\Users\JUNIOR\Google Drive\Maua\Aplicada2-Pic\labintegrado2014\Firmware\controlador PI\main.c
                     a201   0x002192    program     extern C:\Users\JUNIOR\Google Drive\Maua\Aplicada2-Pic\labintegrado2014\Firmware\controlador PI\main.c
                     a202   0x002194    program     extern C:\Users\JUNIOR\Google Drive\Maua\Aplicada2-Pic\labintegrado2014\Firmware\controlador PI\main.c
                     a203   0x002196    program     extern C:\Users\JUNIOR\Google Drive\Maua\Aplicada2-Pic\labintegrado2014\Firmware\controlador PI\main.c
                     a204   0x002198    program     extern C:\Users\JUNIOR\Google Drive\Maua\Aplicada2-Pic\labintegrado2014\Firmware\controlador PI\main.c
                     a205   0x00219a    program     extern C:\Users\JUNIOR\Google Drive\Maua\Aplicada2-Pic\labintegrado2014\Firmware\controlador PI\main.c
                     a206   0x00219c    program     extern C:\Users\JUNIOR\Google Drive\Maua\Aplicada2-Pic\labintegrado2014\Firmware\controlador PI\main.c
                     a207   0x00219e    program     extern C:\Users\JUNIOR\Google Drive\Maua\Aplicada2-Pic\labintegrado2014\Firmware\controlador PI\main.c
                     a208   0x0021a0    program     extern C:\Users\JUNIOR\Google Drive\Maua\Aplicada2-Pic\labintegrado2014\Firmware\controlador PI\main.c
                     a209   0x0021a2    program     extern C:\Users\JUNIOR\Google Drive\Maua\Aplicada2-Pic\labintegrado2014\Firmware\controlador PI\main.c
                     a210   0x0021a4    program     extern C:\Users\JUNIOR\Google Drive\Maua\Aplicada2-Pic\labintegrado2014\Firmware\controlador PI\main.c
                     a211   0x0021a6    program     extern C:\Users\JUNIOR\Google Drive\Maua\Aplicada2-Pic\labintegrado2014\Firmware\controlador PI\main.c
                     a212   0x0021a8    program     extern C:\Users\JUNIOR\Google Drive\Maua\Aplicada2-Pic\labintegrado2014\Firmware\controlador PI\main.c
                     a213   0x0021aa    program     extern C:\Users\JUNIOR\Google Drive\Maua\Aplicada2-Pic\labintegrado2014\Firmware\controlador PI\main.c
                     a214   0x0021ac    program     extern C:\Users\JUNIOR\Google Drive\Maua\Aplicada2-Pic\labintegrado2014\Firmware\controlador PI\main.c
                     a215   0x0021ae    program     extern C:\Users\JUNIOR\Google Drive\Maua\Aplicada2-Pic\labintegrado2014\Firmware\controlador PI\main.c
                     a216   0x0021b0    program     extern C:\Users\JUNIOR\Google Drive\Maua\Aplicada2-Pic\labintegrado2014\Firmware\controlador PI\main.c
                     a217   0x0021b2    program     extern C:\Users\JUNIOR\Google Drive\Maua\Aplicada2-Pic\labintegrado2014\Firmware\controlador PI\main.c
                     a218   0x0021b4    program     extern C:\Users\JUNIOR\Google Drive\Maua\Aplicada2-Pic\labintegrado2014\Firmware\controlador PI\main.c
                     a219   0x0021b6    program     extern C:\Users\JUNIOR\Google Drive\Maua\Aplicada2-Pic\labintegrado2014\Firmware\controlador PI\main.c
                     a220   0x0021b8    program     extern C:\Users\JUNIOR\Google Drive\Maua\Aplicada2-Pic\labintegrado2014\Firmware\controlador PI\main.c
                     a221   0x0021ba    program     extern C:\Users\JUNIOR\Google Drive\Maua\Aplicada2-Pic\labintegrado2014\Firmware\controlador PI\main.c
                     a222   0x0021bc    program     extern C:\Users\JUNIOR\Google Drive\Maua\Aplicada2-Pic\labintegrado2014\Firmware\controlador PI\main.c
                     a223   0x0021be    program     extern C:\Users\JUNIOR\Google Drive\Maua\Aplicada2-Pic\labintegrado2014\Firmware\controlador PI\main.c
                     a224   0x0021c0    program     extern C:\Users\JUNIOR\Google Drive\Maua\Aplicada2-Pic\labintegrado2014\Firmware\controlador PI\main.c
                     a225   0x0021c2    program     extern C:\Users\JUNIOR\Google Drive\Maua\Aplicada2-Pic\labintegrado2014\Firmware\controlador PI\main.c
                     a226   0x0021c4    program     extern C:\Users\JUNIOR\Google Drive\Maua\Aplicada2-Pic\labintegrado2014\Firmware\controlador PI\main.c
                     a227   0x0021c6    program     extern C:\Users\JUNIOR\Google Drive\Maua\Aplicada2-Pic\labintegrado2014\Firmware\controlador PI\main.c
                     a228   0x0021c8    program     extern C:\Users\JUNIOR\Google Drive\Maua\Aplicada2-Pic\labintegrado2014\Firmware\controlador PI\main.c
                     a229   0x0021ca    program     extern C:\Users\JUNIOR\Google Drive\Maua\Aplicada2-Pic\labintegrado2014\Firmware\controlador PI\main.c
                     a230   0x0021cc    program     extern C:\Users\JUNIOR\Google Drive\Maua\Aplicada2-Pic\labintegrado2014\Firmware\controlador PI\main.c
                     a231   0x0021ce    program     extern C:\Users\JUNIOR\Google Drive\Maua\Aplicada2-Pic\labintegrado2014\Firmware\controlador PI\main.c
                     a232   0x0021d0    program     extern C:\Users\JUNIOR\Google Drive\Maua\Aplicada2-Pic\labintegrado2014\Firmware\controlador PI\main.c
                     a233   0x0021d2    program     extern C:\Users\JUNIOR\Google Drive\Maua\Aplicada2-Pic\labintegrado2014\Firmware\controlador PI\main.c
                     a234   0x0021d4    program     extern C:\Users\JUNIOR\Google Drive\Maua\Aplicada2-Pic\labintegrado2014\Firmware\controlador PI\main.c
                     a235   0x0021d6    program     extern C:\Users\JUNIOR\Google Drive\Maua\Aplicada2-Pic\labintegrado2014\Firmware\controlador PI\main.c
                     a236   0x0021d8    program     extern C:\Users\JUNIOR\Google Drive\Maua\Aplicada2-Pic\labintegrado2014\Firmware\controlador PI\main.c
                     a237   0x0021da    program     extern C:\Users\JUNIOR\Google Drive\Maua\Aplicada2-Pic\labintegrado2014\Firmware\controlador PI\main.c
                     a238   0x0021dc    program     extern C:\Users\JUNIOR\Google Drive\Maua\Aplicada2-Pic\labintegrado2014\Firmware\controlador PI\main.c
                     a239   0x0021de    program     extern C:\Users\JUNIOR\Google Drive\Maua\Aplicada2-Pic\labintegrado2014\Firmware\controlador PI\main.c
                     a240   0x0021e0    program     extern C:\Users\JUNIOR\Google Drive\Maua\Aplicada2-Pic\labintegrado2014\Firmware\controlador PI\main.c
                     a241   0x0021e2    program     extern C:\Users\JUNIOR\Google Drive\Maua\Aplicada2-Pic\labintegrado2014\Firmware\controlador PI\main.c
                     a242   0x0021e4    program     extern C:\Users\JUNIOR\Google Drive\Maua\Aplicada2-Pic\labintegrado2014\Firmware\controlador PI\main.c
                     a243   0x0021e6    program     extern C:\Users\JUNIOR\Google Drive\Maua\Aplicada2-Pic\labintegrado2014\Firmware\controlador PI\main.c
                     a244   0x0021e8    program     extern C:\Users\JUNIOR\Google Drive\Maua\Aplicada2-Pic\labintegrado2014\Firmware\controlador PI\main.c
                     a245   0x0021ea    program     extern C:\Users\JUNIOR\Google Drive\Maua\Aplicada2-Pic\labintegrado2014\Firmware\controlador PI\main.c
                     a246   0x0021ec    program     extern C:\Users\JUNIOR\Google Drive\Maua\Aplicada2-Pic\labintegrado2014\Firmware\controlador PI\main.c
                     a247   0x0021ee    program     extern C:\Users\JUNIOR\Google Drive\Maua\Aplicada2-Pic\labintegrado2014\Firmware\controlador PI\main.c
                     a248   0x0021f0    program     extern C:\Users\JUNIOR\Google Drive\Maua\Aplicada2-Pic\labintegrado2014\Firmware\controlador PI\main.c
                     a249   0x0021f2    program     extern C:\Users\JUNIOR\Google Drive\Maua\Aplicada2-Pic\labintegrado2014\Firmware\controlador PI\main.c
                     a250   0x0021f4    program     extern C:\Users\JUNIOR\Google Drive\Maua\Aplicada2-Pic\labintegrado2014\Firmware\controlador PI\main.c
                     a251   0x0021f6    program     extern C:\Users\JUNIOR\Google Drive\Maua\Aplicada2-Pic\labintegrado2014\Firmware\controlador PI\main.c
                     a252   0x0021f8    program     extern C:\Users\JUNIOR\Google Drive\Maua\Aplicada2-Pic\labintegrado2014\Firmware\controlador PI\main.c
                     a253   0x0021fa    program     extern C:\Users\JUNIOR\Google Drive\Maua\Aplicada2-Pic\labintegrado2014\Firmware\controlador PI\main.c
                     a254   0x0021fc    program     extern C:\Users\JUNIOR\Google Drive\Maua\Aplicada2-Pic\labintegrado2014\Firmware\controlador PI\main.c
                     a255   0x0021fe    program     extern C:\Users\JUNIOR\Google Drive\Maua\Aplicada2-Pic\labintegrado2014\Firmware\controlador PI\main.c
                     a256   0x002200    program     extern C:\Users\JUNIOR\Google Drive\Maua\Aplicada2-Pic\labintegrado2014\Firmware\controlador PI\main.c
                     a257   0x002202    program     extern C:\Users\JUNIOR\Google Drive\Maua\Aplicada2-Pic\labintegrado2014\Firmware\controlador PI\main.c
                     a258   0x002204    program     extern C:\Users\JUNIOR\Google Drive\Maua\Aplicada2-Pic\labintegrado2014\Firmware\controlador PI\main.c
                     a259   0x002206    program     extern C:\Users\JUNIOR\Google Drive\Maua\Aplicada2-Pic\labintegrado2014\Firmware\controlador PI\main.c
                     a260   0x002208    program     extern C:\Users\JUNIOR\Google Drive\Maua\Aplicada2-Pic\labintegrado2014\Firmware\controlador PI\main.c
                     a261   0x00220a    program     extern C:\Users\JUNIOR\Google Drive\Maua\Aplicada2-Pic\labintegrado2014\Firmware\controlador PI\main.c
                     a262   0x00220c    program     extern C:\Users\JUNIOR\Google Drive\Maua\Aplicada2-Pic\labintegrado2014\Firmware\controlador PI\main.c
                     a263   0x00220e    program     extern C:\Users\JUNIOR\Google Drive\Maua\Aplicada2-Pic\labintegrado2014\Firmware\controlador PI\main.c
                     a264   0x002210    program     extern C:\Users\JUNIOR\Google Drive\Maua\Aplicada2-Pic\labintegrado2014\Firmware\controlador PI\main.c
                     a265   0x002212    program     extern C:\Users\JUNIOR\Google Drive\Maua\Aplicada2-Pic\labintegrado2014\Firmware\controlador PI\main.c
                     a266   0x002214    program     extern C:\Users\JUNIOR\Google Drive\Maua\Aplicada2-Pic\labintegrado2014\Firmware\controlador PI\main.c
                     a267   0x002216    program     extern C:\Users\JUNIOR\Google Drive\Maua\Aplicada2-Pic\labintegrado2014\Firmware\controlador PI\main.c
                     a268   0x002218    program     extern C:\Users\JUNIOR\Google Drive\Maua\Aplicada2-Pic\labintegrado2014\Firmware\controlador PI\main.c
                     a269   0x00221a    program     extern C:\Users\JUNIOR\Google Drive\Maua\Aplicada2-Pic\labintegrado2014\Firmware\controlador PI\main.c
                     a270   0x00221c    program     extern C:\Users\JUNIOR\Google Drive\Maua\Aplicada2-Pic\labintegrado2014\Firmware\controlador PI\main.c
                     a271   0x00221e    program     extern C:\Users\JUNIOR\Google Drive\Maua\Aplicada2-Pic\labintegrado2014\Firmware\controlador PI\main.c
                     a272   0x002220    program     extern C:\Users\JUNIOR\Google Drive\Maua\Aplicada2-Pic\labintegrado2014\Firmware\controlador PI\main.c
                     a273   0x002222    program     extern C:\Users\JUNIOR\Google Drive\Maua\Aplicada2-Pic\labintegrado2014\Firmware\controlador PI\main.c
                     a274   0x002224    program     extern C:\Users\JUNIOR\Google Drive\Maua\Aplicada2-Pic\labintegrado2014\Firmware\controlador PI\main.c
                     a275   0x002226    program     extern C:\Users\JUNIOR\Google Drive\Maua\Aplicada2-Pic\labintegrado2014\Firmware\controlador PI\main.c
                     a276   0x002228    program     extern C:\Users\JUNIOR\Google Drive\Maua\Aplicada2-Pic\labintegrado2014\Firmware\controlador PI\main.c
                     a277   0x00222a    program     extern C:\Users\JUNIOR\Google Drive\Maua\Aplicada2-Pic\labintegrado2014\Firmware\controlador PI\main.c
                     a278   0x00222c    program     extern C:\Users\JUNIOR\Google Drive\Maua\Aplicada2-Pic\labintegrado2014\Firmware\controlador PI\main.c
                     a279   0x00222e    program     extern C:\Users\JUNIOR\Google Drive\Maua\Aplicada2-Pic\labintegrado2014\Firmware\controlador PI\main.c
                     a280   0x002230    program     extern C:\Users\JUNIOR\Google Drive\Maua\Aplicada2-Pic\labintegrado2014\Firmware\controlador PI\main.c
                     a281   0x002232    program     extern C:\Users\JUNIOR\Google Drive\Maua\Aplicada2-Pic\labintegrado2014\Firmware\controlador PI\main.c
                     a282   0x002234    program     extern C:\Users\JUNIOR\Google Drive\Maua\Aplicada2-Pic\labintegrado2014\Firmware\controlador PI\main.c
                     a283   0x002236    program     extern C:\Users\JUNIOR\Google Drive\Maua\Aplicada2-Pic\labintegrado2014\Firmware\controlador PI\main.c
                     a284   0x002238    program     extern C:\Users\JUNIOR\Google Drive\Maua\Aplicada2-Pic\labintegrado2014\Firmware\controlador PI\main.c
                     a285   0x00223a    program     extern C:\Users\JUNIOR\Google Drive\Maua\Aplicada2-Pic\labintegrado2014\Firmware\controlador PI\main.c
                     a286   0x00223c    program     extern C:\Users\JUNIOR\Google Drive\Maua\Aplicada2-Pic\labintegrado2014\Firmware\controlador PI\main.c
                     a287   0x00223e    program     extern C:\Users\JUNIOR\Google Drive\Maua\Aplicada2-Pic\labintegrado2014\Firmware\controlador PI\main.c
                     a288   0x002240    program     extern C:\Users\JUNIOR\Google Drive\Maua\Aplicada2-Pic\labintegrado2014\Firmware\controlador PI\main.c
                     a289   0x002242    program     extern C:\Users\JUNIOR\Google Drive\Maua\Aplicada2-Pic\labintegrado2014\Firmware\controlador PI\main.c
                     a290   0x002244    program     extern C:\Users\JUNIOR\Google Drive\Maua\Aplicada2-Pic\labintegrado2014\Firmware\controlador PI\main.c
                     a291   0x002246    program     extern C:\Users\JUNIOR\Google Drive\Maua\Aplicada2-Pic\labintegrado2014\Firmware\controlador PI\main.c
                     a292   0x002248    program     extern C:\Users\JUNIOR\Google Drive\Maua\Aplicada2-Pic\labintegrado2014\Firmware\controlador PI\main.c
                     a293   0x00224a    program     extern C:\Users\JUNIOR\Google Drive\Maua\Aplicada2-Pic\labintegrado2014\Firmware\controlador PI\main.c
                     a294   0x00224c    program     extern C:\Users\JUNIOR\Google Drive\Maua\Aplicada2-Pic\labintegrado2014\Firmware\controlador PI\main.c
                     a295   0x00224e    program     extern C:\Users\JUNIOR\Google Drive\Maua\Aplicada2-Pic\labintegrado2014\Firmware\controlador PI\main.c
                     a296   0x002250    program     extern C:\Users\JUNIOR\Google Drive\Maua\Aplicada2-Pic\labintegrado2014\Firmware\controlador PI\main.c
                     a297   0x002252    program     extern C:\Users\JUNIOR\Google Drive\Maua\Aplicada2-Pic\labintegrado2014\Firmware\controlador PI\main.c
                     a298   0x002254    program     extern C:\Users\JUNIOR\Google Drive\Maua\Aplicada2-Pic\labintegrado2014\Firmware\controlador PI\main.c
                     a299   0x002256    program     extern C:\Users\JUNIOR\Google Drive\Maua\Aplicada2-Pic\labintegrado2014\Firmware\controlador PI\main.c
                     a300   0x002258    program     extern C:\Users\JUNIOR\Google Drive\Maua\Aplicada2-Pic\labintegrado2014\Firmware\controlador PI\main.c
                     a301   0x00225a    program     extern C:\Users\JUNIOR\Google Drive\Maua\Aplicada2-Pic\labintegrado2014\Firmware\controlador PI\main.c
                     a302   0x00225c    program     extern C:\Users\JUNIOR\Google Drive\Maua\Aplicada2-Pic\labintegrado2014\Firmware\controlador PI\main.c
                     a303   0x00225e    program     extern C:\Users\JUNIOR\Google Drive\Maua\Aplicada2-Pic\labintegrado2014\Firmware\controlador PI\main.c
                     a304   0x002260    program     extern C:\Users\JUNIOR\Google Drive\Maua\Aplicada2-Pic\labintegrado2014\Firmware\controlador PI\main.c
                     a305   0x002262    program     extern C:\Users\JUNIOR\Google Drive\Maua\Aplicada2-Pic\labintegrado2014\Firmware\controlador PI\main.c
                     a306   0x002264    program     extern C:\Users\JUNIOR\Google Drive\Maua\Aplicada2-Pic\labintegrado2014\Firmware\controlador PI\main.c
                     a307   0x002266    program     extern C:\Users\JUNIOR\Google Drive\Maua\Aplicada2-Pic\labintegrado2014\Firmware\controlador PI\main.c
                     a308   0x002268    program     extern C:\Users\JUNIOR\Google Drive\Maua\Aplicada2-Pic\labintegrado2014\Firmware\controlador PI\main.c
                     a309   0x00226a    program     extern C:\Users\JUNIOR\Google Drive\Maua\Aplicada2-Pic\labintegrado2014\Firmware\controlador PI\main.c
                     a310   0x00226c    program     extern C:\Users\JUNIOR\Google Drive\Maua\Aplicada2-Pic\labintegrado2014\Firmware\controlador PI\main.c
                     a311   0x00226e    program     extern C:\Users\JUNIOR\Google Drive\Maua\Aplicada2-Pic\labintegrado2014\Firmware\controlador PI\main.c
                     a312   0x002270    program     extern C:\Users\JUNIOR\Google Drive\Maua\Aplicada2-Pic\labintegrado2014\Firmware\controlador PI\main.c
                     a313   0x002272    program     extern C:\Users\JUNIOR\Google Drive\Maua\Aplicada2-Pic\labintegrado2014\Firmware\controlador PI\main.c
                     a314   0x002274    program     extern C:\Users\JUNIOR\Google Drive\Maua\Aplicada2-Pic\labintegrado2014\Firmware\controlador PI\main.c
                     a315   0x002276    program     extern C:\Users\JUNIOR\Google Drive\Maua\Aplicada2-Pic\labintegrado2014\Firmware\controlador PI\main.c
                     a316   0x002278    program     extern C:\Users\JUNIOR\Google Drive\Maua\Aplicada2-Pic\labintegrado2014\Firmware\controlador PI\main.c
                     a317   0x00227a    program     extern C:\Users\JUNIOR\Google Drive\Maua\Aplicada2-Pic\labintegrado2014\Firmware\controlador PI\main.c
                     a318   0x00227c    program     extern C:\Users\JUNIOR\Google Drive\Maua\Aplicada2-Pic\labintegrado2014\Firmware\controlador PI\main.c
                     a319   0x00227e    program     extern C:\Users\JUNIOR\Google Drive\Maua\Aplicada2-Pic\labintegrado2014\Firmware\controlador PI\main.c
                     a320   0x002280    program     extern C:\Users\JUNIOR\Google Drive\Maua\Aplicada2-Pic\labintegrado2014\Firmware\controlador PI\main.c
                     a321   0x002282    program     extern C:\Users\JUNIOR\Google Drive\Maua\Aplicada2-Pic\labintegrado2014\Firmware\controlador PI\main.c
                     a322   0x002284    program     extern C:\Users\JUNIOR\Google Drive\Maua\Aplicada2-Pic\labintegrado2014\Firmware\controlador PI\main.c
                     a323   0x002286    program     extern C:\Users\JUNIOR\Google Drive\Maua\Aplicada2-Pic\labintegrado2014\Firmware\controlador PI\main.c
                     a324   0x002288    program     extern C:\Users\JUNIOR\Google Drive\Maua\Aplicada2-Pic\labintegrado2014\Firmware\controlador PI\main.c
                     a325   0x00228a    program     extern C:\Users\JUNIOR\Google Drive\Maua\Aplicada2-Pic\labintegrado2014\Firmware\controlador PI\main.c
                     a326   0x00228c    program     extern C:\Users\JUNIOR\Google Drive\Maua\Aplicada2-Pic\labintegrado2014\Firmware\controlador PI\main.c
                     a327   0x00228e    program     extern C:\Users\JUNIOR\Google Drive\Maua\Aplicada2-Pic\labintegrado2014\Firmware\controlador PI\main.c
                     a328   0x002290    program     extern C:\Users\JUNIOR\Google Drive\Maua\Aplicada2-Pic\labintegrado2014\Firmware\controlador PI\main.c
                     a329   0x002292    program     extern C:\Users\JUNIOR\Google Drive\Maua\Aplicada2-Pic\labintegrado2014\Firmware\controlador PI\main.c
                     a330   0x002294    program     extern C:\Users\JUNIOR\Google Drive\Maua\Aplicada2-Pic\labintegrado2014\Firmware\controlador PI\main.c
                     a331   0x002296    program     extern C:\Users\JUNIOR\Google Drive\Maua\Aplicada2-Pic\labintegrado2014\Firmware\controlador PI\main.c
                     a332   0x002298    program     extern C:\Users\JUNIOR\Google Drive\Maua\Aplicada2-Pic\labintegrado2014\Firmware\controlador PI\main.c
                     a333   0x00229a    program     extern C:\Users\JUNIOR\Google Drive\Maua\Aplicada2-Pic\labintegrado2014\Firmware\controlador PI\main.c
                     a334   0x00229c    program     extern C:\Users\JUNIOR\Google Drive\Maua\Aplicada2-Pic\labintegrado2014\Firmware\controlador PI\main.c
                     a335   0x00229e    program     extern C:\Users\JUNIOR\Google Drive\Maua\Aplicada2-Pic\labintegrado2014\Firmware\controlador PI\main.c
                     a336   0x0022a0    program     extern C:\Users\JUNIOR\Google Drive\Maua\Aplicada2-Pic\labintegrado2014\Firmware\controlador PI\main.c
                     a337   0x0022a2    program     extern C:\Users\JUNIOR\Google Drive\Maua\Aplicada2-Pic\labintegrado2014\Firmware\controlador PI\main.c
                     a338   0x0022a4    program     extern C:\Users\JUNIOR\Google Drive\Maua\Aplicada2-Pic\labintegrado2014\Firmware\controlador PI\main.c
                     a339   0x0022a6    program     extern C:\Users\JUNIOR\Google Drive\Maua\Aplicada2-Pic\labintegrado2014\Firmware\controlador PI\main.c
                     a340   0x0022a8    program     extern C:\Users\JUNIOR\Google Drive\Maua\Aplicada2-Pic\labintegrado2014\Firmware\controlador PI\main.c
                     a341   0x0022aa    program     extern C:\Users\JUNIOR\Google Drive\Maua\Aplicada2-Pic\labintegrado2014\Firmware\controlador PI\main.c
                     a342   0x0022ac    program     extern C:\Users\JUNIOR\Google Drive\Maua\Aplicada2-Pic\labintegrado2014\Firmware\controlador PI\main.c
                     a343   0x0022ae    program     extern C:\Users\JUNIOR\Google Drive\Maua\Aplicada2-Pic\labintegrado2014\Firmware\controlador PI\main.c
                     a344   0x0022b0    program     extern C:\Users\JUNIOR\Google Drive\Maua\Aplicada2-Pic\labintegrado2014\Firmware\controlador PI\main.c
                     a345   0x0022b2    program     extern C:\Users\JUNIOR\Google Drive\Maua\Aplicada2-Pic\labintegrado2014\Firmware\controlador PI\main.c
                     a346   0x0022b4    program     extern C:\Users\JUNIOR\Google Drive\Maua\Aplicada2-Pic\labintegrado2014\Firmware\controlador PI\main.c
                     a347   0x0022b6    program     extern C:\Users\JUNIOR\Google Drive\Maua\Aplicada2-Pic\labintegrado2014\Firmware\controlador PI\main.c
                     a348   0x0022b8    program     extern C:\Users\JUNIOR\Google Drive\Maua\Aplicada2-Pic\labintegrado2014\Firmware\controlador PI\main.c
                     a349   0x0022ba    program     extern C:\Users\JUNIOR\Google Drive\Maua\Aplicada2-Pic\labintegrado2014\Firmware\controlador PI\main.c
                     a350   0x0022bc    program     extern C:\Users\JUNIOR\Google Drive\Maua\Aplicada2-Pic\labintegrado2014\Firmware\controlador PI\main.c
                     a351   0x0022be    program     extern C:\Users\JUNIOR\Google Drive\Maua\Aplicada2-Pic\labintegrado2014\Firmware\controlador PI\main.c
                     a352   0x0022c0    program     extern C:\Users\JUNIOR\Google Drive\Maua\Aplicada2-Pic\labintegrado2014\Firmware\controlador PI\main.c
                     a353   0x0022c2    program     extern C:\Users\JUNIOR\Google Drive\Maua\Aplicada2-Pic\labintegrado2014\Firmware\controlador PI\main.c
                     a354   0x0022c4    program     extern C:\Users\JUNIOR\Google Drive\Maua\Aplicada2-Pic\labintegrado2014\Firmware\controlador PI\main.c
                     a355   0x0022c6    program     extern C:\Users\JUNIOR\Google Drive\Maua\Aplicada2-Pic\labintegrado2014\Firmware\controlador PI\main.c
                     a356   0x0022c8    program     extern C:\Users\JUNIOR\Google Drive\Maua\Aplicada2-Pic\labintegrado2014\Firmware\controlador PI\main.c
                     a357   0x0022ca    program     extern C:\Users\JUNIOR\Google Drive\Maua\Aplicada2-Pic\labintegrado2014\Firmware\controlador PI\main.c
                     a358   0x0022cc    program     extern C:\Users\JUNIOR\Google Drive\Maua\Aplicada2-Pic\labintegrado2014\Firmware\controlador PI\main.c
                     a359   0x0022ce    program     extern C:\Users\JUNIOR\Google Drive\Maua\Aplicada2-Pic\labintegrado2014\Firmware\controlador PI\main.c
                     a360   0x0022d0    program     extern C:\Users\JUNIOR\Google Drive\Maua\Aplicada2-Pic\labintegrado2014\Firmware\controlador PI\main.c
                     a361   0x0022d2    program     extern C:\Users\JUNIOR\Google Drive\Maua\Aplicada2-Pic\labintegrado2014\Firmware\controlador PI\main.c
                     a362   0x0022d4    program     extern C:\Users\JUNIOR\Google Drive\Maua\Aplicada2-Pic\labintegrado2014\Firmware\controlador PI\main.c
                     a363   0x0022d6    program     extern C:\Users\JUNIOR\Google Drive\Maua\Aplicada2-Pic\labintegrado2014\Firmware\controlador PI\main.c
                     a364   0x0022d8    program     extern C:\Users\JUNIOR\Google Drive\Maua\Aplicada2-Pic\labintegrado2014\Firmware\controlador PI\main.c
                     a365   0x0022da    program     extern C:\Users\JUNIOR\Google Drive\Maua\Aplicada2-Pic\labintegrado2014\Firmware\controlador PI\main.c
                     a366   0x0022dc    program     extern C:\Users\JUNIOR\Google Drive\Maua\Aplicada2-Pic\labintegrado2014\Firmware\controlador PI\main.c
                     a367   0x0022de    program     extern C:\Users\JUNIOR\Google Drive\Maua\Aplicada2-Pic\labintegrado2014\Firmware\controlador PI\main.c
                     a368   0x0022e0    program     extern C:\Users\JUNIOR\Google Drive\Maua\Aplicada2-Pic\labintegrado2014\Firmware\controlador PI\main.c
                     a369   0x0022e2    program     extern C:\Users\JUNIOR\Google Drive\Maua\Aplicada2-Pic\labintegrado2014\Firmware\controlador PI\main.c
                     a370   0x0022e4    program     extern C:\Users\JUNIOR\Google Drive\Maua\Aplicada2-Pic\labintegrado2014\Firmware\controlador PI\main.c
                     a371   0x0022e6    program     extern C:\Users\JUNIOR\Google Drive\Maua\Aplicada2-Pic\labintegrado2014\Firmware\controlador PI\main.c
                     a372   0x0022e8    program     extern C:\Users\JUNIOR\Google Drive\Maua\Aplicada2-Pic\labintegrado2014\Firmware\controlador PI\main.c
                     a373   0x0022ea    program     extern C:\Users\JUNIOR\Google Drive\Maua\Aplicada2-Pic\labintegrado2014\Firmware\controlador PI\main.c
                     a374   0x0022ec    program     extern C:\Users\JUNIOR\Google Drive\Maua\Aplicada2-Pic\labintegrado2014\Firmware\controlador PI\main.c
                     a375   0x0022ee    program     extern C:\Users\JUNIOR\Google Drive\Maua\Aplicada2-Pic\labintegrado2014\Firmware\controlador PI\main.c
                     a376   0x0022f0    program     extern C:\Users\JUNIOR\Google Drive\Maua\Aplicada2-Pic\labintegrado2014\Firmware\controlador PI\main.c
                     a377   0x0022f2    program     extern C:\Users\JUNIOR\Google Drive\Maua\Aplicada2-Pic\labintegrado2014\Firmware\controlador PI\main.c
                     a378   0x0022f4    program     extern C:\Users\JUNIOR\Google Drive\Maua\Aplicada2-Pic\labintegrado2014\Firmware\controlador PI\main.c
                     a379   0x0022f6    program     extern C:\Users\JUNIOR\Google Drive\Maua\Aplicada2-Pic\labintegrado2014\Firmware\controlador PI\main.c
                     a380   0x0022f8    program     extern C:\Users\JUNIOR\Google Drive\Maua\Aplicada2-Pic\labintegrado2014\Firmware\controlador PI\main.c
                     a381   0x0022fa    program     extern C:\Users\JUNIOR\Google Drive\Maua\Aplicada2-Pic\labintegrado2014\Firmware\controlador PI\main.c
                     a382   0x0022fc    program     extern C:\Users\JUNIOR\Google Drive\Maua\Aplicada2-Pic\labintegrado2014\Firmware\controlador PI\main.c
                     a383   0x0022fe    program     extern C:\Users\JUNIOR\Google Drive\Maua\Aplicada2-Pic\labintegrado2014\Firmware\controlador PI\main.c
                     a384   0x002300    program     extern C:\Users\JUNIOR\Google Drive\Maua\Aplicada2-Pic\labintegrado2014\Firmware\controlador PI\main.c
                     a385   0x002302    program     extern C:\Users\JUNIOR\Google Drive\Maua\Aplicada2-Pic\labintegrado2014\Firmware\controlador PI\main.c
                     a386   0x002304    program     extern C:\Users\JUNIOR\Google Drive\Maua\Aplicada2-Pic\labintegrado2014\Firmware\controlador PI\main.c
                     a387   0x002306    program     extern C:\Users\JUNIOR\Google Drive\Maua\Aplicada2-Pic\labintegrado2014\Firmware\controlador PI\main.c
                     a388   0x002308    program     extern C:\Users\JUNIOR\Google Drive\Maua\Aplicada2-Pic\labintegrado2014\Firmware\controlador PI\main.c
                     a389   0x00230a    program     extern C:\Users\JUNIOR\Google Drive\Maua\Aplicada2-Pic\labintegrado2014\Firmware\controlador PI\main.c
                     a390   0x00230c    program     extern C:\Users\JUNIOR\Google Drive\Maua\Aplicada2-Pic\labintegrado2014\Firmware\controlador PI\main.c
                     a391   0x00230e    program     extern C:\Users\JUNIOR\Google Drive\Maua\Aplicada2-Pic\labintegrado2014\Firmware\controlador PI\main.c
                     a392   0x002310    program     extern C:\Users\JUNIOR\Google Drive\Maua\Aplicada2-Pic\labintegrado2014\Firmware\controlador PI\main.c
                     a393   0x002312    program     extern C:\Users\JUNIOR\Google Drive\Maua\Aplicada2-Pic\labintegrado2014\Firmware\controlador PI\main.c
                     a394   0x002314    program     extern C:\Users\JUNIOR\Google Drive\Maua\Aplicada2-Pic\labintegrado2014\Firmware\controlador PI\main.c
                     a395   0x002316    program     extern C:\Users\JUNIOR\Google Drive\Maua\Aplicada2-Pic\labintegrado2014\Firmware\controlador PI\main.c
                     a396   0x002318    program     extern C:\Users\JUNIOR\Google Drive\Maua\Aplicada2-Pic\labintegrado2014\Firmware\controlador PI\main.c
                     a397   0x00231a    program     extern C:\Users\JUNIOR\Google Drive\Maua\Aplicada2-Pic\labintegrado2014\Firmware\controlador PI\main.c
                     a398   0x00231c    program     extern C:\Users\JUNIOR\Google Drive\Maua\Aplicada2-Pic\labintegrado2014\Firmware\controlador PI\main.c
                     a399   0x00231e    program     extern C:\Users\JUNIOR\Google Drive\Maua\Aplicada2-Pic\labintegrado2014\Firmware\controlador PI\main.c
                     a400   0x002320    program     extern C:\Users\JUNIOR\Google Drive\Maua\Aplicada2-Pic\labintegrado2014\Firmware\controlador PI\main.c
                     a401   0x002322    program     extern C:\Users\JUNIOR\Google Drive\Maua\Aplicada2-Pic\labintegrado2014\Firmware\controlador PI\main.c
                     a402   0x002324    program     extern C:\Users\JUNIOR\Google Drive\Maua\Aplicada2-Pic\labintegrado2014\Firmware\controlador PI\main.c
                     a403   0x002326    program     extern C:\Users\JUNIOR\Google Drive\Maua\Aplicada2-Pic\labintegrado2014\Firmware\controlador PI\main.c
                     a404   0x002328    program     extern C:\Users\JUNIOR\Google Drive\Maua\Aplicada2-Pic\labintegrado2014\Firmware\controlador PI\main.c
                     a405   0x00232a    program     extern C:\Users\JUNIOR\Google Drive\Maua\Aplicada2-Pic\labintegrado2014\Firmware\controlador PI\main.c
                     a406   0x00232c    program     extern C:\Users\JUNIOR\Google Drive\Maua\Aplicada2-Pic\labintegrado2014\Firmware\controlador PI\main.c
                     a407   0x00232e    program     extern C:\Users\JUNIOR\Google Drive\Maua\Aplicada2-Pic\labintegrado2014\Firmware\controlador PI\main.c
                     a408   0x002330    program     extern C:\Users\JUNIOR\Google Drive\Maua\Aplicada2-Pic\labintegrado2014\Firmware\controlador PI\main.c
                     a409   0x002332    program     extern C:\Users\JUNIOR\Google Drive\Maua\Aplicada2-Pic\labintegrado2014\Firmware\controlador PI\main.c
                     a410   0x002334    program     extern C:\Users\JUNIOR\Google Drive\Maua\Aplicada2-Pic\labintegrado2014\Firmware\controlador PI\main.c
                     a411   0x002336    program     extern C:\Users\JUNIOR\Google Drive\Maua\Aplicada2-Pic\labintegrado2014\Firmware\controlador PI\main.c
                     a412   0x002338    program     extern C:\Users\JUNIOR\Google Drive\Maua\Aplicada2-Pic\labintegrado2014\Firmware\controlador PI\main.c
                     a413   0x00233a    program     extern C:\Users\JUNIOR\Google Drive\Maua\Aplicada2-Pic\labintegrado2014\Firmware\controlador PI\main.c
                     a414   0x00233c    program     extern C:\Users\JUNIOR\Google Drive\Maua\Aplicada2-Pic\labintegrado2014\Firmware\controlador PI\main.c
                     a415   0x00233e    program     extern C:\Users\JUNIOR\Google Drive\Maua\Aplicada2-Pic\labintegrado2014\Firmware\controlador PI\main.c
                     a416   0x002340    program     extern C:\Users\JUNIOR\Google Drive\Maua\Aplicada2-Pic\labintegrado2014\Firmware\controlador PI\main.c
                     a417   0x002342    program     extern C:\Users\JUNIOR\Google Drive\Maua\Aplicada2-Pic\labintegrado2014\Firmware\controlador PI\main.c
                     a418   0x002344    program     extern C:\Users\JUNIOR\Google Drive\Maua\Aplicada2-Pic\labintegrado2014\Firmware\controlador PI\main.c
                     a419   0x002346    program     extern C:\Users\JUNIOR\Google Drive\Maua\Aplicada2-Pic\labintegrado2014\Firmware\controlador PI\main.c
                     a420   0x002348    program     extern C:\Users\JUNIOR\Google Drive\Maua\Aplicada2-Pic\labintegrado2014\Firmware\controlador PI\main.c
                     a421   0x00234a    program     extern C:\Users\JUNIOR\Google Drive\Maua\Aplicada2-Pic\labintegrado2014\Firmware\controlador PI\main.c
                     a422   0x00234c    program     extern C:\Users\JUNIOR\Google Drive\Maua\Aplicada2-Pic\labintegrado2014\Firmware\controlador PI\main.c
                     a423   0x00234e    program     extern C:\Users\JUNIOR\Google Drive\Maua\Aplicada2-Pic\labintegrado2014\Firmware\controlador PI\main.c
                     a424   0x002350    program     extern C:\Users\JUNIOR\Google Drive\Maua\Aplicada2-Pic\labintegrado2014\Firmware\controlador PI\main.c
                     a425   0x002352    program     extern C:\Users\JUNIOR\Google Drive\Maua\Aplicada2-Pic\labintegrado2014\Firmware\controlador PI\main.c
                     a426   0x002354    program     extern C:\Users\JUNIOR\Google Drive\Maua\Aplicada2-Pic\labintegrado2014\Firmware\controlador PI\main.c
                     a427   0x002356    program     extern C:\Users\JUNIOR\Google Drive\Maua\Aplicada2-Pic\labintegrado2014\Firmware\controlador PI\main.c
                     a428   0x002358    program     extern C:\Users\JUNIOR\Google Drive\Maua\Aplicada2-Pic\labintegrado2014\Firmware\controlador PI\main.c
                     a429   0x00235a    program     extern C:\Users\JUNIOR\Google Drive\Maua\Aplicada2-Pic\labintegrado2014\Firmware\controlador PI\main.c
                     a430   0x00235c    program     extern C:\Users\JUNIOR\Google Drive\Maua\Aplicada2-Pic\labintegrado2014\Firmware\controlador PI\main.c
                     a431   0x00235e    program     extern C:\Users\JUNIOR\Google Drive\Maua\Aplicada2-Pic\labintegrado2014\Firmware\controlador PI\main.c
                     a432   0x002360    program     extern C:\Users\JUNIOR\Google Drive\Maua\Aplicada2-Pic\labintegrado2014\Firmware\controlador PI\main.c
                     a433   0x002362    program     extern C:\Users\JUNIOR\Google Drive\Maua\Aplicada2-Pic\labintegrado2014\Firmware\controlador PI\main.c
                     a434   0x002364    program     extern C:\Users\JUNIOR\Google Drive\Maua\Aplicada2-Pic\labintegrado2014\Firmware\controlador PI\main.c
                     a435   0x002366    program     extern C:\Users\JUNIOR\Google Drive\Maua\Aplicada2-Pic\labintegrado2014\Firmware\controlador PI\main.c
                     a436   0x002368    program     extern C:\Users\JUNIOR\Google Drive\Maua\Aplicada2-Pic\labintegrado2014\Firmware\controlador PI\main.c
                     a437   0x00236a    program     extern C:\Users\JUNIOR\Google Drive\Maua\Aplicada2-Pic\labintegrado2014\Firmware\controlador PI\main.c
                     a438   0x00236c    program     extern C:\Users\JUNIOR\Google Drive\Maua\Aplicada2-Pic\labintegrado2014\Firmware\controlador PI\main.c
                     a439   0x00236e    program     extern C:\Users\JUNIOR\Google Drive\Maua\Aplicada2-Pic\labintegrado2014\Firmware\controlador PI\main.c
                     a440   0x002370    program     extern C:\Users\JUNIOR\Google Drive\Maua\Aplicada2-Pic\labintegrado2014\Firmware\controlador PI\main.c
                     a441   0x002372    program     extern C:\Users\JUNIOR\Google Drive\Maua\Aplicada2-Pic\labintegrado2014\Firmware\controlador PI\main.c
                     a442   0x002374    program     extern C:\Users\JUNIOR\Google Drive\Maua\Aplicada2-Pic\labintegrado2014\Firmware\controlador PI\main.c
                     a443   0x002376    program     extern C:\Users\JUNIOR\Google Drive\Maua\Aplicada2-Pic\labintegrado2014\Firmware\controlador PI\main.c
                     a444   0x002378    program     extern C:\Users\JUNIOR\Google Drive\Maua\Aplicada2-Pic\labintegrado2014\Firmware\controlador PI\main.c
                     a445   0x00237a    program     extern C:\Users\JUNIOR\Google Drive\Maua\Aplicada2-Pic\labintegrado2014\Firmware\controlador PI\main.c
                     a446   0x00237c    program     extern C:\Users\JUNIOR\Google Drive\Maua\Aplicada2-Pic\labintegrado2014\Firmware\controlador PI\main.c
                     a447   0x00237e    program     extern C:\Users\JUNIOR\Google Drive\Maua\Aplicada2-Pic\labintegrado2014\Firmware\controlador PI\main.c
                     a448   0x002380    program     extern C:\Users\JUNIOR\Google Drive\Maua\Aplicada2-Pic\labintegrado2014\Firmware\controlador PI\main.c
                     a449   0x002382    program     extern C:\Users\JUNIOR\Google Drive\Maua\Aplicada2-Pic\labintegrado2014\Firmware\controlador PI\main.c
                     a450   0x002384    program     extern C:\Users\JUNIOR\Google Drive\Maua\Aplicada2-Pic\labintegrado2014\Firmware\controlador PI\main.c
                     a451   0x002386    program     extern C:\Users\JUNIOR\Google Drive\Maua\Aplicada2-Pic\labintegrado2014\Firmware\controlador PI\main.c
                     a452   0x002388    program     extern C:\Users\JUNIOR\Google Drive\Maua\Aplicada2-Pic\labintegrado2014\Firmware\controlador PI\main.c
                     a453   0x00238a    program     extern C:\Users\JUNIOR\Google Drive\Maua\Aplicada2-Pic\labintegrado2014\Firmware\controlador PI\main.c
                     a454   0x00238c    program     extern C:\Users\JUNIOR\Google Drive\Maua\Aplicada2-Pic\labintegrado2014\Firmware\controlador PI\main.c
                     a455   0x00238e    program     extern C:\Users\JUNIOR\Google Drive\Maua\Aplicada2-Pic\labintegrado2014\Firmware\controlador PI\main.c
                     a456   0x002390    program     extern C:\Users\JUNIOR\Google Drive\Maua\Aplicada2-Pic\labintegrado2014\Firmware\controlador PI\main.c
                     a457   0x002392    program     extern C:\Users\JUNIOR\Google Drive\Maua\Aplicada2-Pic\labintegrado2014\Firmware\controlador PI\main.c
                     a458   0x002394    program     extern C:\Users\JUNIOR\Google Drive\Maua\Aplicada2-Pic\labintegrado2014\Firmware\controlador PI\main.c
                     a459   0x002396    program     extern C:\Users\JUNIOR\Google Drive\Maua\Aplicada2-Pic\labintegrado2014\Firmware\controlador PI\main.c
                     a460   0x002398    program     extern C:\Users\JUNIOR\Google Drive\Maua\Aplicada2-Pic\labintegrado2014\Firmware\controlador PI\main.c
                     a461   0x00239a    program     extern C:\Users\JUNIOR\Google Drive\Maua\Aplicada2-Pic\labintegrado2014\Firmware\controlador PI\main.c
                     a462   0x00239c    program     extern C:\Users\JUNIOR\Google Drive\Maua\Aplicada2-Pic\labintegrado2014\Firmware\controlador PI\main.c
                     a463   0x00239e    program     extern C:\Users\JUNIOR\Google Drive\Maua\Aplicada2-Pic\labintegrado2014\Firmware\controlador PI\main.c
                     a464   0x0023a0    program     extern C:\Users\JUNIOR\Google Drive\Maua\Aplicada2-Pic\labintegrado2014\Firmware\controlador PI\main.c
                     a465   0x0023a2    program     extern C:\Users\JUNIOR\Google Drive\Maua\Aplicada2-Pic\labintegrado2014\Firmware\controlador PI\main.c
                     a466   0x0023a4    program     extern C:\Users\JUNIOR\Google Drive\Maua\Aplicada2-Pic\labintegrado2014\Firmware\controlador PI\main.c
                     a467   0x0023a6    program     extern C:\Users\JUNIOR\Google Drive\Maua\Aplicada2-Pic\labintegrado2014\Firmware\controlador PI\main.c
                     a468   0x0023a8    program     extern C:\Users\JUNIOR\Google Drive\Maua\Aplicada2-Pic\labintegrado2014\Firmware\controlador PI\main.c
                     a469   0x0023aa    program     extern C:\Users\JUNIOR\Google Drive\Maua\Aplicada2-Pic\labintegrado2014\Firmware\controlador PI\main.c
                     a470   0x0023ac    program     extern C:\Users\JUNIOR\Google Drive\Maua\Aplicada2-Pic\labintegrado2014\Firmware\controlador PI\main.c
                     a471   0x0023ae    program     extern C:\Users\JUNIOR\Google Drive\Maua\Aplicada2-Pic\labintegrado2014\Firmware\controlador PI\main.c
                     a472   0x0023b0    program     extern C:\Users\JUNIOR\Google Drive\Maua\Aplicada2-Pic\labintegrado2014\Firmware\controlador PI\main.c
                     a473   0x0023b2    program     extern C:\Users\JUNIOR\Google Drive\Maua\Aplicada2-Pic\labintegrado2014\Firmware\controlador PI\main.c
                     a474   0x0023b4    program     extern C:\Users\JUNIOR\Google Drive\Maua\Aplicada2-Pic\labintegrado2014\Firmware\controlador PI\main.c
                     a475   0x0023b6    program     extern C:\Users\JUNIOR\Google Drive\Maua\Aplicada2-Pic\labintegrado2014\Firmware\controlador PI\main.c
                     a476   0x0023b8    program     extern C:\Users\JUNIOR\Google Drive\Maua\Aplicada2-Pic\labintegrado2014\Firmware\controlador PI\main.c
                     a477   0x0023ba    program     extern C:\Users\JUNIOR\Google Drive\Maua\Aplicada2-Pic\labintegrado2014\Firmware\controlador PI\main.c
                     a478   0x0023bc    program     extern C:\Users\JUNIOR\Google Drive\Maua\Aplicada2-Pic\labintegrado2014\Firmware\controlador PI\main.c
                     a479   0x0023be    program     extern C:\Users\JUNIOR\Google Drive\Maua\Aplicada2-Pic\labintegrado2014\Firmware\controlador PI\main.c
                     a480   0x0023c0    program     extern C:\Users\JUNIOR\Google Drive\Maua\Aplicada2-Pic\labintegrado2014\Firmware\controlador PI\main.c
                     a481   0x0023c2    program     extern C:\Users\JUNIOR\Google Drive\Maua\Aplicada2-Pic\labintegrado2014\Firmware\controlador PI\main.c
                     a482   0x0023c4    program     extern C:\Users\JUNIOR\Google Drive\Maua\Aplicada2-Pic\labintegrado2014\Firmware\controlador PI\main.c
                     a483   0x0023c6    program     extern C:\Users\JUNIOR\Google Drive\Maua\Aplicada2-Pic\labintegrado2014\Firmware\controlador PI\main.c
                     a484   0x0023c8    program     extern C:\Users\JUNIOR\Google Drive\Maua\Aplicada2-Pic\labintegrado2014\Firmware\controlador PI\main.c
                     a485   0x0023ca    program     extern C:\Users\JUNIOR\Google Drive\Maua\Aplicada2-Pic\labintegrado2014\Firmware\controlador PI\main.c
                     a486   0x0023cc    program     extern C:\Users\JUNIOR\Google Drive\Maua\Aplicada2-Pic\labintegrado2014\Firmware\controlador PI\main.c
                     a487   0x0023ce    program     extern C:\Users\JUNIOR\Google Drive\Maua\Aplicada2-Pic\labintegrado2014\Firmware\controlador PI\main.c
                     a488   0x0023d0    program     extern C:\Users\JUNIOR\Google Drive\Maua\Aplicada2-Pic\labintegrado2014\Firmware\controlador PI\main.c
                     a489   0x0023d2    program     extern C:\Users\JUNIOR\Google Drive\Maua\Aplicada2-Pic\labintegrado2014\Firmware\controlador PI\main.c
                     a490   0x0023d4    program     extern C:\Users\JUNIOR\Google Drive\Maua\Aplicada2-Pic\labintegrado2014\Firmware\controlador PI\main.c
                     a491   0x0023d6    program     extern C:\Users\JUNIOR\Google Drive\Maua\Aplicada2-Pic\labintegrado2014\Firmware\controlador PI\main.c
                     a492   0x0023d8    program     extern C:\Users\JUNIOR\Google Drive\Maua\Aplicada2-Pic\labintegrado2014\Firmware\controlador PI\main.c
                     a493   0x0023da    program     extern C:\Users\JUNIOR\Google Drive\Maua\Aplicada2-Pic\labintegrado2014\Firmware\controlador PI\main.c
                     a494   0x0023dc    program     extern C:\Users\JUNIOR\Google Drive\Maua\Aplicada2-Pic\labintegrado2014\Firmware\controlador PI\main.c
                     a495   0x0023de    program     extern C:\Users\JUNIOR\Google Drive\Maua\Aplicada2-Pic\labintegrado2014\Firmware\controlador PI\main.c
                     a496   0x0023e0    program     extern C:\Users\JUNIOR\Google Drive\Maua\Aplicada2-Pic\labintegrado2014\Firmware\controlador PI\main.c
                     a497   0x0023e2    program     extern C:\Users\JUNIOR\Google Drive\Maua\Aplicada2-Pic\labintegrado2014\Firmware\controlador PI\main.c
                     a498   0x0023e4    program     extern C:\Users\JUNIOR\Google Drive\Maua\Aplicada2-Pic\labintegrado2014\Firmware\controlador PI\main.c
                     a499   0x0023e6    program     extern C:\Users\JUNIOR\Google Drive\Maua\Aplicada2-Pic\labintegrado2014\Firmware\controlador PI\main.c
                     a500   0x0023e8    program     extern C:\Users\JUNIOR\Google Drive\Maua\Aplicada2-Pic\labintegrado2014\Firmware\controlador PI\main.c
                     a501   0x0023ea    program     extern C:\Users\JUNIOR\Google Drive\Maua\Aplicada2-Pic\labintegrado2014\Firmware\controlador PI\main.c
                     a502   0x0023ec    program     extern C:\Users\JUNIOR\Google Drive\Maua\Aplicada2-Pic\labintegrado2014\Firmware\controlador PI\main.c
                     a503   0x0023ee    program     extern C:\Users\JUNIOR\Google Drive\Maua\Aplicada2-Pic\labintegrado2014\Firmware\controlador PI\main.c
                     a504   0x0023f0    program     extern C:\Users\JUNIOR\Google Drive\Maua\Aplicada2-Pic\labintegrado2014\Firmware\controlador PI\main.c
                     a505   0x0023f2    program     extern C:\Users\JUNIOR\Google Drive\Maua\Aplicada2-Pic\labintegrado2014\Firmware\controlador PI\main.c
                     a506   0x0023f4    program     extern C:\Users\JUNIOR\Google Drive\Maua\Aplicada2-Pic\labintegrado2014\Firmware\controlador PI\main.c
                     a507   0x0023f6    program     extern C:\Users\JUNIOR\Google Drive\Maua\Aplicada2-Pic\labintegrado2014\Firmware\controlador PI\main.c
                     a508   0x0023f8    program     extern C:\Users\JUNIOR\Google Drive\Maua\Aplicada2-Pic\labintegrado2014\Firmware\controlador PI\main.c
                     a509   0x0023fa    program     extern C:\Users\JUNIOR\Google Drive\Maua\Aplicada2-Pic\labintegrado2014\Firmware\controlador PI\main.c
                     a510   0x0023fc    program     extern C:\Users\JUNIOR\Google Drive\Maua\Aplicada2-Pic\labintegrado2014\Firmware\controlador PI\main.c
                     a511   0x0023fe    program     extern C:\Users\JUNIOR\Google Drive\Maua\Aplicada2-Pic\labintegrado2014\Firmware\controlador PI\main.c
                     a512   0x002400    program     extern C:\Users\JUNIOR\Google Drive\Maua\Aplicada2-Pic\labintegrado2014\Firmware\controlador PI\main.c
                     a513   0x002402    program     extern C:\Users\JUNIOR\Google Drive\Maua\Aplicada2-Pic\labintegrado2014\Firmware\controlador PI\main.c
                     a514   0x002404    program     extern C:\Users\JUNIOR\Google Drive\Maua\Aplicada2-Pic\labintegrado2014\Firmware\controlador PI\main.c
                     a515   0x002406    program     extern C:\Users\JUNIOR\Google Drive\Maua\Aplicada2-Pic\labintegrado2014\Firmware\controlador PI\main.c
                     a516   0x002408    program     extern C:\Users\JUNIOR\Google Drive\Maua\Aplicada2-Pic\labintegrado2014\Firmware\controlador PI\main.c
                     a517   0x00240a    program     extern C:\Users\JUNIOR\Google Drive\Maua\Aplicada2-Pic\labintegrado2014\Firmware\controlador PI\main.c
                     a518   0x00240c    program     extern C:\Users\JUNIOR\Google Drive\Maua\Aplicada2-Pic\labintegrado2014\Firmware\controlador PI\main.c
                     a519   0x00240e    program     extern C:\Users\JUNIOR\Google Drive\Maua\Aplicada2-Pic\labintegrado2014\Firmware\controlador PI\main.c
                     a520   0x002410    program     extern C:\Users\JUNIOR\Google Drive\Maua\Aplicada2-Pic\labintegrado2014\Firmware\controlador PI\main.c
                     a521   0x002412    program     extern C:\Users\JUNIOR\Google Drive\Maua\Aplicada2-Pic\labintegrado2014\Firmware\controlador PI\main.c
                     a522   0x002414    program     extern C:\Users\JUNIOR\Google Drive\Maua\Aplicada2-Pic\labintegrado2014\Firmware\controlador PI\main.c
                     a523   0x002416    program     extern C:\Users\JUNIOR\Google Drive\Maua\Aplicada2-Pic\labintegrado2014\Firmware\controlador PI\main.c
                     a524   0x002418    program     extern C:\Users\JUNIOR\Google Drive\Maua\Aplicada2-Pic\labintegrado2014\Firmware\controlador PI\main.c
                     a525   0x00241a    program     extern C:\Users\JUNIOR\Google Drive\Maua\Aplicada2-Pic\labintegrado2014\Firmware\controlador PI\main.c
                     a526   0x00241c    program     extern C:\Users\JUNIOR\Google Drive\Maua\Aplicada2-Pic\labintegrado2014\Firmware\controlador PI\main.c
                     a527   0x00241e    program     extern C:\Users\JUNIOR\Google Drive\Maua\Aplicada2-Pic\labintegrado2014\Firmware\controlador PI\main.c
                     a528   0x002420    program     extern C:\Users\JUNIOR\Google Drive\Maua\Aplicada2-Pic\labintegrado2014\Firmware\controlador PI\main.c
                     a529   0x002422    program     extern C:\Users\JUNIOR\Google Drive\Maua\Aplicada2-Pic\labintegrado2014\Firmware\controlador PI\main.c
                     a530   0x002424    program     extern C:\Users\JUNIOR\Google Drive\Maua\Aplicada2-Pic\labintegrado2014\Firmware\controlador PI\main.c
                     a531   0x002426    program     extern C:\Users\JUNIOR\Google Drive\Maua\Aplicada2-Pic\labintegrado2014\Firmware\controlador PI\main.c
                     a532   0x002428    program     extern C:\Users\JUNIOR\Google Drive\Maua\Aplicada2-Pic\labintegrado2014\Firmware\controlador PI\main.c
                     a533   0x00242a    program     extern C:\Users\JUNIOR\Google Drive\Maua\Aplicada2-Pic\labintegrado2014\Firmware\controlador PI\main.c
                     a534   0x00242c    program     extern C:\Users\JUNIOR\Google Drive\Maua\Aplicada2-Pic\labintegrado2014\Firmware\controlador PI\main.c
                     a535   0x00242e    program     extern C:\Users\JUNIOR\Google Drive\Maua\Aplicada2-Pic\labintegrado2014\Firmware\controlador PI\main.c
                     a536   0x002430    program     extern C:\Users\JUNIOR\Google Drive\Maua\Aplicada2-Pic\labintegrado2014\Firmware\controlador PI\main.c
                     a537   0x002432    program     extern C:\Users\JUNIOR\Google Drive\Maua\Aplicada2-Pic\labintegrado2014\Firmware\controlador PI\main.c
                     a538   0x002434    program     extern C:\Users\JUNIOR\Google Drive\Maua\Aplicada2-Pic\labintegrado2014\Firmware\controlador PI\main.c
                     a539   0x002436    program     extern C:\Users\JUNIOR\Google Drive\Maua\Aplicada2-Pic\labintegrado2014\Firmware\controlador PI\main.c
                     a540   0x002438    program     extern C:\Users\JUNIOR\Google Drive\Maua\Aplicada2-Pic\labintegrado2014\Firmware\controlador PI\main.c
                     a541   0x00243a    program     extern C:\Users\JUNIOR\Google Drive\Maua\Aplicada2-Pic\labintegrado2014\Firmware\controlador PI\main.c
                     a542   0x00243c    program     extern C:\Users\JUNIOR\Google Drive\Maua\Aplicada2-Pic\labintegrado2014\Firmware\controlador PI\main.c
                     a543   0x00243e    program     extern C:\Users\JUNIOR\Google Drive\Maua\Aplicada2-Pic\labintegrado2014\Firmware\controlador PI\main.c
                     a544   0x002440    program     extern C:\Users\JUNIOR\Google Drive\Maua\Aplicada2-Pic\labintegrado2014\Firmware\controlador PI\main.c
                     a545   0x002442    program     extern C:\Users\JUNIOR\Google Drive\Maua\Aplicada2-Pic\labintegrado2014\Firmware\controlador PI\main.c
                     a546   0x002444    program     extern C:\Users\JUNIOR\Google Drive\Maua\Aplicada2-Pic\labintegrado2014\Firmware\controlador PI\main.c
                     a547   0x002446    program     extern C:\Users\JUNIOR\Google Drive\Maua\Aplicada2-Pic\labintegrado2014\Firmware\controlador PI\main.c
                     a548   0x002448    program     extern C:\Users\JUNIOR\Google Drive\Maua\Aplicada2-Pic\labintegrado2014\Firmware\controlador PI\main.c
                     a549   0x00244a    program     extern C:\Users\JUNIOR\Google Drive\Maua\Aplicada2-Pic\labintegrado2014\Firmware\controlador PI\main.c
                     a550   0x00244c    program     extern C:\Users\JUNIOR\Google Drive\Maua\Aplicada2-Pic\labintegrado2014\Firmware\controlador PI\main.c
                     a551   0x00244e    program     extern C:\Users\JUNIOR\Google Drive\Maua\Aplicada2-Pic\labintegrado2014\Firmware\controlador PI\main.c
                     a552   0x002450    program     extern C:\Users\JUNIOR\Google Drive\Maua\Aplicada2-Pic\labintegrado2014\Firmware\controlador PI\main.c
                     a553   0x002452    program     extern C:\Users\JUNIOR\Google Drive\Maua\Aplicada2-Pic\labintegrado2014\Firmware\controlador PI\main.c
                     a554   0x002454    program     extern C:\Users\JUNIOR\Google Drive\Maua\Aplicada2-Pic\labintegrado2014\Firmware\controlador PI\main.c
                     a555   0x002456    program     extern C:\Users\JUNIOR\Google Drive\Maua\Aplicada2-Pic\labintegrado2014\Firmware\controlador PI\main.c
                     a556   0x002458    program     extern C:\Users\JUNIOR\Google Drive\Maua\Aplicada2-Pic\labintegrado2014\Firmware\controlador PI\main.c
                     a557   0x00245a    program     extern C:\Users\JUNIOR\Google Drive\Maua\Aplicada2-Pic\labintegrado2014\Firmware\controlador PI\main.c
                     a558   0x00245c    program     extern C:\Users\JUNIOR\Google Drive\Maua\Aplicada2-Pic\labintegrado2014\Firmware\controlador PI\main.c
                     a559   0x00245e    program     extern C:\Users\JUNIOR\Google Drive\Maua\Aplicada2-Pic\labintegrado2014\Firmware\controlador PI\main.c
                     a560   0x002460    program     extern C:\Users\JUNIOR\Google Drive\Maua\Aplicada2-Pic\labintegrado2014\Firmware\controlador PI\main.c
                     a561   0x002462    program     extern C:\Users\JUNIOR\Google Drive\Maua\Aplicada2-Pic\labintegrado2014\Firmware\controlador PI\main.c
                     a562   0x002464    program     extern C:\Users\JUNIOR\Google Drive\Maua\Aplicada2-Pic\labintegrado2014\Firmware\controlador PI\main.c
                     a563   0x002466    program     extern C:\Users\JUNIOR\Google Drive\Maua\Aplicada2-Pic\labintegrado2014\Firmware\controlador PI\main.c
                     a564   0x002468    program     extern C:\Users\JUNIOR\Google Drive\Maua\Aplicada2-Pic\labintegrado2014\Firmware\controlador PI\main.c
                     a565   0x00246a    program     extern C:\Users\JUNIOR\Google Drive\Maua\Aplicada2-Pic\labintegrado2014\Firmware\controlador PI\main.c
                     a566   0x00246c    program     extern C:\Users\JUNIOR\Google Drive\Maua\Aplicada2-Pic\labintegrado2014\Firmware\controlador PI\main.c
                     a567   0x00246e    program     extern C:\Users\JUNIOR\Google Drive\Maua\Aplicada2-Pic\labintegrado2014\Firmware\controlador PI\main.c
                     a568   0x002470    program     extern C:\Users\JUNIOR\Google Drive\Maua\Aplicada2-Pic\labintegrado2014\Firmware\controlador PI\main.c
                     a569   0x002472    program     extern C:\Users\JUNIOR\Google Drive\Maua\Aplicada2-Pic\labintegrado2014\Firmware\controlador PI\main.c
                     a570   0x002474    program     extern C:\Users\JUNIOR\Google Drive\Maua\Aplicada2-Pic\labintegrado2014\Firmware\controlador PI\main.c
                     a571   0x002476    program     extern C:\Users\JUNIOR\Google Drive\Maua\Aplicada2-Pic\labintegrado2014\Firmware\controlador PI\main.c
                     a572   0x002478    program     extern C:\Users\JUNIOR\Google Drive\Maua\Aplicada2-Pic\labintegrado2014\Firmware\controlador PI\main.c
                     a573   0x00247a    program     extern C:\Users\JUNIOR\Google Drive\Maua\Aplicada2-Pic\labintegrado2014\Firmware\controlador PI\main.c
                     a574   0x00247c    program     extern C:\Users\JUNIOR\Google Drive\Maua\Aplicada2-Pic\labintegrado2014\Firmware\controlador PI\main.c
                     a575   0x00247e    program     extern C:\Users\JUNIOR\Google Drive\Maua\Aplicada2-Pic\labintegrado2014\Firmware\controlador PI\main.c
                     a576   0x002480    program     extern C:\Users\JUNIOR\Google Drive\Maua\Aplicada2-Pic\labintegrado2014\Firmware\controlador PI\main.c
                     a577   0x002482    program     extern C:\Users\JUNIOR\Google Drive\Maua\Aplicada2-Pic\labintegrado2014\Firmware\controlador PI\main.c
                     a578   0x002484    program     extern C:\Users\JUNIOR\Google Drive\Maua\Aplicada2-Pic\labintegrado2014\Firmware\controlador PI\main.c
                     a579   0x002486    program     extern C:\Users\JUNIOR\Google Drive\Maua\Aplicada2-Pic\labintegrado2014\Firmware\controlador PI\main.c
                     a580   0x002488    program     extern C:\Users\JUNIOR\Google Drive\Maua\Aplicada2-Pic\labintegrado2014\Firmware\controlador PI\main.c
                     a581   0x00248a    program     extern C:\Users\JUNIOR\Google Drive\Maua\Aplicada2-Pic\labintegrado2014\Firmware\controlador PI\main.c
                     a582   0x00248c    program     extern C:\Users\JUNIOR\Google Drive\Maua\Aplicada2-Pic\labintegrado2014\Firmware\controlador PI\main.c
                     a583   0x00248e    program     extern C:\Users\JUNIOR\Google Drive\Maua\Aplicada2-Pic\labintegrado2014\Firmware\controlador PI\main.c
                     a584   0x002490    program     extern C:\Users\JUNIOR\Google Drive\Maua\Aplicada2-Pic\labintegrado2014\Firmware\controlador PI\main.c
                     a585   0x002492    program     extern C:\Users\JUNIOR\Google Drive\Maua\Aplicada2-Pic\labintegrado2014\Firmware\controlador PI\main.c
                     a586   0x002494    program     extern C:\Users\JUNIOR\Google Drive\Maua\Aplicada2-Pic\labintegrado2014\Firmware\controlador PI\main.c
                     a587   0x002496    program     extern C:\Users\JUNIOR\Google Drive\Maua\Aplicada2-Pic\labintegrado2014\Firmware\controlador PI\main.c
                     a588   0x002498    program     extern C:\Users\JUNIOR\Google Drive\Maua\Aplicada2-Pic\labintegrado2014\Firmware\controlador PI\main.c
                     a589   0x00249a    program     extern C:\Users\JUNIOR\Google Drive\Maua\Aplicada2-Pic\labintegrado2014\Firmware\controlador PI\main.c
                     a590   0x00249c    program     extern C:\Users\JUNIOR\Google Drive\Maua\Aplicada2-Pic\labintegrado2014\Firmware\controlador PI\main.c
                     a591   0x00249e    program     extern C:\Users\JUNIOR\Google Drive\Maua\Aplicada2-Pic\labintegrado2014\Firmware\controlador PI\main.c
                     a592   0x0024a0    program     extern C:\Users\JUNIOR\Google Drive\Maua\Aplicada2-Pic\labintegrado2014\Firmware\controlador PI\main.c
                     a593   0x0024a2    program     extern C:\Users\JUNIOR\Google Drive\Maua\Aplicada2-Pic\labintegrado2014\Firmware\controlador PI\main.c
                     a594   0x0024a4    program     extern C:\Users\JUNIOR\Google Drive\Maua\Aplicada2-Pic\labintegrado2014\Firmware\controlador PI\main.c
                     a595   0x0024a6    program     extern C:\Users\JUNIOR\Google Drive\Maua\Aplicada2-Pic\labintegrado2014\Firmware\controlador PI\main.c
                     a596   0x0024a8    program     extern C:\Users\JUNIOR\Google Drive\Maua\Aplicada2-Pic\labintegrado2014\Firmware\controlador PI\main.c
                     a597   0x0024aa    program     extern C:\Users\JUNIOR\Google Drive\Maua\Aplicada2-Pic\labintegrado2014\Firmware\controlador PI\main.c
                     a598   0x0024ac    program     extern C:\Users\JUNIOR\Google Drive\Maua\Aplicada2-Pic\labintegrado2014\Firmware\controlador PI\main.c
                     a599   0x0024ae    program     extern C:\Users\JUNIOR\Google Drive\Maua\Aplicada2-Pic\labintegrado2014\Firmware\controlador PI\main.c
                     a600   0x0024b0    program     extern C:\Users\JUNIOR\Google Drive\Maua\Aplicada2-Pic\labintegrado2014\Firmware\controlador PI\main.c
                     a601   0x0024b2    program     extern C:\Users\JUNIOR\Google Drive\Maua\Aplicada2-Pic\labintegrado2014\Firmware\controlador PI\main.c
                     a602   0x0024b4    program     extern C:\Users\JUNIOR\Google Drive\Maua\Aplicada2-Pic\labintegrado2014\Firmware\controlador PI\main.c
                     a603   0x0024b6    program     extern C:\Users\JUNIOR\Google Drive\Maua\Aplicada2-Pic\labintegrado2014\Firmware\controlador PI\main.c
                     a604   0x0024b8    program     extern C:\Users\JUNIOR\Google Drive\Maua\Aplicada2-Pic\labintegrado2014\Firmware\controlador PI\main.c
                     a605   0x0024ba    program     extern C:\Users\JUNIOR\Google Drive\Maua\Aplicada2-Pic\labintegrado2014\Firmware\controlador PI\main.c
                     a606   0x0024bc    program     extern C:\Users\JUNIOR\Google Drive\Maua\Aplicada2-Pic\labintegrado2014\Firmware\controlador PI\main.c
                     a607   0x0024be    program     extern C:\Users\JUNIOR\Google Drive\Maua\Aplicada2-Pic\labintegrado2014\Firmware\controlador PI\main.c
                     a608   0x0024c0    program     extern C:\Users\JUNIOR\Google Drive\Maua\Aplicada2-Pic\labintegrado2014\Firmware\controlador PI\main.c
                     a609   0x0024c2    program     extern C:\Users\JUNIOR\Google Drive\Maua\Aplicada2-Pic\labintegrado2014\Firmware\controlador PI\main.c
                     a610   0x0024c4    program     extern C:\Users\JUNIOR\Google Drive\Maua\Aplicada2-Pic\labintegrado2014\Firmware\controlador PI\main.c
                     a611   0x0024c6    program     extern C:\Users\JUNIOR\Google Drive\Maua\Aplicada2-Pic\labintegrado2014\Firmware\controlador PI\main.c
                     a612   0x0024c8    program     extern C:\Users\JUNIOR\Google Drive\Maua\Aplicada2-Pic\labintegrado2014\Firmware\controlador PI\main.c
                     a613   0x0024ca    program     extern C:\Users\JUNIOR\Google Drive\Maua\Aplicada2-Pic\labintegrado2014\Firmware\controlador PI\main.c
                     a614   0x0024cc    program     extern C:\Users\JUNIOR\Google Drive\Maua\Aplicada2-Pic\labintegrado2014\Firmware\controlador PI\main.c
                     a615   0x0024ce    program     extern C:\Users\JUNIOR\Google Drive\Maua\Aplicada2-Pic\labintegrado2014\Firmware\controlador PI\main.c
                     a616   0x0024d0    program     extern C:\Users\JUNIOR\Google Drive\Maua\Aplicada2-Pic\labintegrado2014\Firmware\controlador PI\main.c
                     a617   0x0024d2    program     extern C:\Users\JUNIOR\Google Drive\Maua\Aplicada2-Pic\labintegrado2014\Firmware\controlador PI\main.c
                     a618   0x0024d4    program     extern C:\Users\JUNIOR\Google Drive\Maua\Aplicada2-Pic\labintegrado2014\Firmware\controlador PI\main.c
                     a619   0x0024d6    program     extern C:\Users\JUNIOR\Google Drive\Maua\Aplicada2-Pic\labintegrado2014\Firmware\controlador PI\main.c
                     a620   0x0024d8    program     extern C:\Users\JUNIOR\Google Drive\Maua\Aplicada2-Pic\labintegrado2014\Firmware\controlador PI\main.c
                     a621   0x0024da    program     extern C:\Users\JUNIOR\Google Drive\Maua\Aplicada2-Pic\labintegrado2014\Firmware\controlador PI\main.c
                     a622   0x0024dc    program     extern C:\Users\JUNIOR\Google Drive\Maua\Aplicada2-Pic\labintegrado2014\Firmware\controlador PI\main.c
                     a623   0x0024de    program     extern C:\Users\JUNIOR\Google Drive\Maua\Aplicada2-Pic\labintegrado2014\Firmware\controlador PI\main.c
                     a624   0x0024e0    program     extern C:\Users\JUNIOR\Google Drive\Maua\Aplicada2-Pic\labintegrado2014\Firmware\controlador PI\main.c
                     a625   0x0024e2    program     extern C:\Users\JUNIOR\Google Drive\Maua\Aplicada2-Pic\labintegrado2014\Firmware\controlador PI\main.c
                     a626   0x0024e4    program     extern C:\Users\JUNIOR\Google Drive\Maua\Aplicada2-Pic\labintegrado2014\Firmware\controlador PI\main.c
                     a627   0x0024e6    program     extern C:\Users\JUNIOR\Google Drive\Maua\Aplicada2-Pic\labintegrado2014\Firmware\controlador PI\main.c
                     a628   0x0024e8    program     extern C:\Users\JUNIOR\Google Drive\Maua\Aplicada2-Pic\labintegrado2014\Firmware\controlador PI\main.c
                     a629   0x0024ea    program     extern C:\Users\JUNIOR\Google Drive\Maua\Aplicada2-Pic\labintegrado2014\Firmware\controlador PI\main.c
                     a630   0x0024ec    program     extern C:\Users\JUNIOR\Google Drive\Maua\Aplicada2-Pic\labintegrado2014\Firmware\controlador PI\main.c
                     a631   0x0024ee    program     extern C:\Users\JUNIOR\Google Drive\Maua\Aplicada2-Pic\labintegrado2014\Firmware\controlador PI\main.c
                     a632   0x0024f0    program     extern C:\Users\JUNIOR\Google Drive\Maua\Aplicada2-Pic\labintegrado2014\Firmware\controlador PI\main.c
                     a633   0x0024f2    program     extern C:\Users\JUNIOR\Google Drive\Maua\Aplicada2-Pic\labintegrado2014\Firmware\controlador PI\main.c
                     a634   0x0024f4    program     extern C:\Users\JUNIOR\Google Drive\Maua\Aplicada2-Pic\labintegrado2014\Firmware\controlador PI\main.c
                     a635   0x0024f6    program     extern C:\Users\JUNIOR\Google Drive\Maua\Aplicada2-Pic\labintegrado2014\Firmware\controlador PI\main.c
                     a636   0x0024f8    program     extern C:\Users\JUNIOR\Google Drive\Maua\Aplicada2-Pic\labintegrado2014\Firmware\controlador PI\main.c
                     a637   0x0024fa    program     extern C:\Users\JUNIOR\Google Drive\Maua\Aplicada2-Pic\labintegrado2014\Firmware\controlador PI\main.c
                     a638   0x0024fc    program     extern C:\Users\JUNIOR\Google Drive\Maua\Aplicada2-Pic\labintegrado2014\Firmware\controlador PI\main.c
                     a639   0x0024fe    program     extern C:\Users\JUNIOR\Google Drive\Maua\Aplicada2-Pic\labintegrado2014\Firmware\controlador PI\main.c
                     a640   0x002500    program     extern C:\Users\JUNIOR\Google Drive\Maua\Aplicada2-Pic\labintegrado2014\Firmware\controlador PI\main.c
                     a641   0x002502    program     extern C:\Users\JUNIOR\Google Drive\Maua\Aplicada2-Pic\labintegrado2014\Firmware\controlador PI\main.c
                     a642   0x002504    program     extern C:\Users\JUNIOR\Google Drive\Maua\Aplicada2-Pic\labintegrado2014\Firmware\controlador PI\main.c
                     a643   0x002506    program     extern C:\Users\JUNIOR\Google Drive\Maua\Aplicada2-Pic\labintegrado2014\Firmware\controlador PI\main.c
                     a644   0x002508    program     extern C:\Users\JUNIOR\Google Drive\Maua\Aplicada2-Pic\labintegrado2014\Firmware\controlador PI\main.c
                     a645   0x00250a    program     extern C:\Users\JUNIOR\Google Drive\Maua\Aplicada2-Pic\labintegrado2014\Firmware\controlador PI\main.c
                     a646   0x00250c    program     extern C:\Users\JUNIOR\Google Drive\Maua\Aplicada2-Pic\labintegrado2014\Firmware\controlador PI\main.c
                     a647   0x00250e    program     extern C:\Users\JUNIOR\Google Drive\Maua\Aplicada2-Pic\labintegrado2014\Firmware\controlador PI\main.c
                     a648   0x002510    program     extern C:\Users\JUNIOR\Google Drive\Maua\Aplicada2-Pic\labintegrado2014\Firmware\controlador PI\main.c
                     a649   0x002512    program     extern C:\Users\JUNIOR\Google Drive\Maua\Aplicada2-Pic\labintegrado2014\Firmware\controlador PI\main.c
                     a650   0x002514    program     extern C:\Users\JUNIOR\Google Drive\Maua\Aplicada2-Pic\labintegrado2014\Firmware\controlador PI\main.c
                     a651   0x002516    program     extern C:\Users\JUNIOR\Google Drive\Maua\Aplicada2-Pic\labintegrado2014\Firmware\controlador PI\main.c
                     a652   0x002518    program     extern C:\Users\JUNIOR\Google Drive\Maua\Aplicada2-Pic\labintegrado2014\Firmware\controlador PI\main.c
                     a653   0x00251a    program     extern C:\Users\JUNIOR\Google Drive\Maua\Aplicada2-Pic\labintegrado2014\Firmware\controlador PI\main.c
                     a654   0x00251c    program     extern C:\Users\JUNIOR\Google Drive\Maua\Aplicada2-Pic\labintegrado2014\Firmware\controlador PI\main.c
                     a655   0x00251e    program     extern C:\Users\JUNIOR\Google Drive\Maua\Aplicada2-Pic\labintegrado2014\Firmware\controlador PI\main.c
                     a656   0x002520    program     extern C:\Users\JUNIOR\Google Drive\Maua\Aplicada2-Pic\labintegrado2014\Firmware\controlador PI\main.c
                     a657   0x002522    program     extern C:\Users\JUNIOR\Google Drive\Maua\Aplicada2-Pic\labintegrado2014\Firmware\controlador PI\main.c
                     a658   0x002524    program     extern C:\Users\JUNIOR\Google Drive\Maua\Aplicada2-Pic\labintegrado2014\Firmware\controlador PI\main.c
                     a659   0x002526    program     extern C:\Users\JUNIOR\Google Drive\Maua\Aplicada2-Pic\labintegrado2014\Firmware\controlador PI\main.c
                     a660   0x002528    program     extern C:\Users\JUNIOR\Google Drive\Maua\Aplicada2-Pic\labintegrado2014\Firmware\controlador PI\main.c
                     a661   0x00252a    program     extern C:\Users\JUNIOR\Google Drive\Maua\Aplicada2-Pic\labintegrado2014\Firmware\controlador PI\main.c
                     a662   0x00252c    program     extern C:\Users\JUNIOR\Google Drive\Maua\Aplicada2-Pic\labintegrado2014\Firmware\controlador PI\main.c
                     a663   0x00252e    program     extern C:\Users\JUNIOR\Google Drive\Maua\Aplicada2-Pic\labintegrado2014\Firmware\controlador PI\main.c
                     a664   0x002530    program     extern C:\Users\JUNIOR\Google Drive\Maua\Aplicada2-Pic\labintegrado2014\Firmware\controlador PI\main.c
                     a665   0x002532    program     extern C:\Users\JUNIOR\Google Drive\Maua\Aplicada2-Pic\labintegrado2014\Firmware\controlador PI\main.c
                     a666   0x002534    program     extern C:\Users\JUNIOR\Google Drive\Maua\Aplicada2-Pic\labintegrado2014\Firmware\controlador PI\main.c
                     a667   0x002536    program     extern C:\Users\JUNIOR\Google Drive\Maua\Aplicada2-Pic\labintegrado2014\Firmware\controlador PI\main.c
                     a668   0x002538    program     extern C:\Users\JUNIOR\Google Drive\Maua\Aplicada2-Pic\labintegrado2014\Firmware\controlador PI\main.c
                     a669   0x00253a    program     extern C:\Users\JUNIOR\Google Drive\Maua\Aplicada2-Pic\labintegrado2014\Firmware\controlador PI\main.c
                     a670   0x00253c    program     extern C:\Users\JUNIOR\Google Drive\Maua\Aplicada2-Pic\labintegrado2014\Firmware\controlador PI\main.c
                     a671   0x00253e    program     extern C:\Users\JUNIOR\Google Drive\Maua\Aplicada2-Pic\labintegrado2014\Firmware\controlador PI\main.c
                     a672   0x002540    program     extern C:\Users\JUNIOR\Google Drive\Maua\Aplicada2-Pic\labintegrado2014\Firmware\controlador PI\main.c
                     a673   0x002542    program     extern C:\Users\JUNIOR\Google Drive\Maua\Aplicada2-Pic\labintegrado2014\Firmware\controlador PI\main.c
                     a674   0x002544    program     extern C:\Users\JUNIOR\Google Drive\Maua\Aplicada2-Pic\labintegrado2014\Firmware\controlador PI\main.c
                     a675   0x002546    program     extern C:\Users\JUNIOR\Google Drive\Maua\Aplicada2-Pic\labintegrado2014\Firmware\controlador PI\main.c
                     a676   0x002548    program     extern C:\Users\JUNIOR\Google Drive\Maua\Aplicada2-Pic\labintegrado2014\Firmware\controlador PI\main.c
                     a677   0x00254a    program     extern C:\Users\JUNIOR\Google Drive\Maua\Aplicada2-Pic\labintegrado2014\Firmware\controlador PI\main.c
                     a678   0x00254c    program     extern C:\Users\JUNIOR\Google Drive\Maua\Aplicada2-Pic\labintegrado2014\Firmware\controlador PI\main.c
                     a679   0x00254e    program     extern C:\Users\JUNIOR\Google Drive\Maua\Aplicada2-Pic\labintegrado2014\Firmware\controlador PI\main.c
                     a680   0x002550    program     extern C:\Users\JUNIOR\Google Drive\Maua\Aplicada2-Pic\labintegrado2014\Firmware\controlador PI\main.c
                     a681   0x002552    program     extern C:\Users\JUNIOR\Google Drive\Maua\Aplicada2-Pic\labintegrado2014\Firmware\controlador PI\main.c
                     a682   0x002554    program     extern C:\Users\JUNIOR\Google Drive\Maua\Aplicada2-Pic\labintegrado2014\Firmware\controlador PI\main.c
                     a683   0x002556    program     extern C:\Users\JUNIOR\Google Drive\Maua\Aplicada2-Pic\labintegrado2014\Firmware\controlador PI\main.c
                     a684   0x002558    program     extern C:\Users\JUNIOR\Google Drive\Maua\Aplicada2-Pic\labintegrado2014\Firmware\controlador PI\main.c
                     a685   0x00255a    program     extern C:\Users\JUNIOR\Google Drive\Maua\Aplicada2-Pic\labintegrado2014\Firmware\controlador PI\main.c
                     a686   0x00255c    program     extern C:\Users\JUNIOR\Google Drive\Maua\Aplicada2-Pic\labintegrado2014\Firmware\controlador PI\main.c
                     a687   0x00255e    program     extern C:\Users\JUNIOR\Google Drive\Maua\Aplicada2-Pic\labintegrado2014\Firmware\controlador PI\main.c
                     a688   0x002560    program     extern C:\Users\JUNIOR\Google Drive\Maua\Aplicada2-Pic\labintegrado2014\Firmware\controlador PI\main.c
                     a689   0x002562    program     extern C:\Users\JUNIOR\Google Drive\Maua\Aplicada2-Pic\labintegrado2014\Firmware\controlador PI\main.c
                     a690   0x002564    program     extern C:\Users\JUNIOR\Google Drive\Maua\Aplicada2-Pic\labintegrado2014\Firmware\controlador PI\main.c
                     a691   0x002566    program     extern C:\Users\JUNIOR\Google Drive\Maua\Aplicada2-Pic\labintegrado2014\Firmware\controlador PI\main.c
                     a692   0x002568    program     extern C:\Users\JUNIOR\Google Drive\Maua\Aplicada2-Pic\labintegrado2014\Firmware\controlador PI\main.c
                     a693   0x00256a    program     extern C:\Users\JUNIOR\Google Drive\Maua\Aplicada2-Pic\labintegrado2014\Firmware\controlador PI\main.c
                     a694   0x00256c    program     extern C:\Users\JUNIOR\Google Drive\Maua\Aplicada2-Pic\labintegrado2014\Firmware\controlador PI\main.c
                     a695   0x00256e    program     extern C:\Users\JUNIOR\Google Drive\Maua\Aplicada2-Pic\labintegrado2014\Firmware\controlador PI\main.c
                     a696   0x002570    program     extern C:\Users\JUNIOR\Google Drive\Maua\Aplicada2-Pic\labintegrado2014\Firmware\controlador PI\main.c
                     a697   0x002572    program     extern C:\Users\JUNIOR\Google Drive\Maua\Aplicada2-Pic\labintegrado2014\Firmware\controlador PI\main.c
                     a698   0x002574    program     extern C:\Users\JUNIOR\Google Drive\Maua\Aplicada2-Pic\labintegrado2014\Firmware\controlador PI\main.c
                     a699   0x002576    program     extern C:\Users\JUNIOR\Google Drive\Maua\Aplicada2-Pic\labintegrado2014\Firmware\controlador PI\main.c
                     a700   0x002578    program     extern C:\Users\JUNIOR\Google Drive\Maua\Aplicada2-Pic\labintegrado2014\Firmware\controlador PI\main.c
                     a701   0x00257a    program     extern C:\Users\JUNIOR\Google Drive\Maua\Aplicada2-Pic\labintegrado2014\Firmware\controlador PI\main.c
                     a702   0x00257c    program     extern C:\Users\JUNIOR\Google Drive\Maua\Aplicada2-Pic\labintegrado2014\Firmware\controlador PI\main.c
                     a703   0x00257e    program     extern C:\Users\JUNIOR\Google Drive\Maua\Aplicada2-Pic\labintegrado2014\Firmware\controlador PI\main.c
                     a704   0x002580    program     extern C:\Users\JUNIOR\Google Drive\Maua\Aplicada2-Pic\labintegrado2014\Firmware\controlador PI\main.c
                     a705   0x002582    program     extern C:\Users\JUNIOR\Google Drive\Maua\Aplicada2-Pic\labintegrado2014\Firmware\controlador PI\main.c
                     a706   0x002584    program     extern C:\Users\JUNIOR\Google Drive\Maua\Aplicada2-Pic\labintegrado2014\Firmware\controlador PI\main.c
                     a707   0x002586    program     extern C:\Users\JUNIOR\Google Drive\Maua\Aplicada2-Pic\labintegrado2014\Firmware\controlador PI\main.c
                     a708   0x002588    program     extern C:\Users\JUNIOR\Google Drive\Maua\Aplicada2-Pic\labintegrado2014\Firmware\controlador PI\main.c
                     a709   0x00258a    program     extern C:\Users\JUNIOR\Google Drive\Maua\Aplicada2-Pic\labintegrado2014\Firmware\controlador PI\main.c
                     a710   0x00258c    program     extern C:\Users\JUNIOR\Google Drive\Maua\Aplicada2-Pic\labintegrado2014\Firmware\controlador PI\main.c
                     a711   0x00258e    program     extern C:\Users\JUNIOR\Google Drive\Maua\Aplicada2-Pic\labintegrado2014\Firmware\controlador PI\main.c
                     a712   0x002590    program     extern C:\Users\JUNIOR\Google Drive\Maua\Aplicada2-Pic\labintegrado2014\Firmware\controlador PI\main.c
                     a713   0x002592    program     extern C:\Users\JUNIOR\Google Drive\Maua\Aplicada2-Pic\labintegrado2014\Firmware\controlador PI\main.c
                     a714   0x002594    program     extern C:\Users\JUNIOR\Google Drive\Maua\Aplicada2-Pic\labintegrado2014\Firmware\controlador PI\main.c
                     a715   0x002596    program     extern C:\Users\JUNIOR\Google Drive\Maua\Aplicada2-Pic\labintegrado2014\Firmware\controlador PI\main.c
                     a716   0x002598    program     extern C:\Users\JUNIOR\Google Drive\Maua\Aplicada2-Pic\labintegrado2014\Firmware\controlador PI\main.c
                     a717   0x00259a    program     extern C:\Users\JUNIOR\Google Drive\Maua\Aplicada2-Pic\labintegrado2014\Firmware\controlador PI\main.c
                     a718   0x00259c    program     extern C:\Users\JUNIOR\Google Drive\Maua\Aplicada2-Pic\labintegrado2014\Firmware\controlador PI\main.c
                     a719   0x00259e    program     extern C:\Users\JUNIOR\Google Drive\Maua\Aplicada2-Pic\labintegrado2014\Firmware\controlador PI\main.c
                     a720   0x0025a0    program     extern C:\Users\JUNIOR\Google Drive\Maua\Aplicada2-Pic\labintegrado2014\Firmware\controlador PI\main.c
                     a721   0x0025a2    program     extern C:\Users\JUNIOR\Google Drive\Maua\Aplicada2-Pic\labintegrado2014\Firmware\controlador PI\main.c
                     a722   0x0025a4    program     extern C:\Users\JUNIOR\Google Drive\Maua\Aplicada2-Pic\labintegrado2014\Firmware\controlador PI\main.c
                     a723   0x0025a6    program     extern C:\Users\JUNIOR\Google Drive\Maua\Aplicada2-Pic\labintegrado2014\Firmware\controlador PI\main.c
                     a724   0x0025a8    program     extern C:\Users\JUNIOR\Google Drive\Maua\Aplicada2-Pic\labintegrado2014\Firmware\controlador PI\main.c
                     a725   0x0025aa    program     extern C:\Users\JUNIOR\Google Drive\Maua\Aplicada2-Pic\labintegrado2014\Firmware\controlador PI\main.c
                     a726   0x0025ac    program     extern C:\Users\JUNIOR\Google Drive\Maua\Aplicada2-Pic\labintegrado2014\Firmware\controlador PI\main.c
                     a727   0x0025ae    program     extern C:\Users\JUNIOR\Google Drive\Maua\Aplicada2-Pic\labintegrado2014\Firmware\controlador PI\main.c
                     a728   0x0025b0    program     extern C:\Users\JUNIOR\Google Drive\Maua\Aplicada2-Pic\labintegrado2014\Firmware\controlador PI\main.c
                     a729   0x0025b2    program     extern C:\Users\JUNIOR\Google Drive\Maua\Aplicada2-Pic\labintegrado2014\Firmware\controlador PI\main.c
                     a730   0x0025b4    program     extern C:\Users\JUNIOR\Google Drive\Maua\Aplicada2-Pic\labintegrado2014\Firmware\controlador PI\main.c
                     a731   0x0025b6    program     extern C:\Users\JUNIOR\Google Drive\Maua\Aplicada2-Pic\labintegrado2014\Firmware\controlador PI\main.c
                     a732   0x0025b8    program     extern C:\Users\JUNIOR\Google Drive\Maua\Aplicada2-Pic\labintegrado2014\Firmware\controlador PI\main.c
                     a733   0x0025ba    program     extern C:\Users\JUNIOR\Google Drive\Maua\Aplicada2-Pic\labintegrado2014\Firmware\controlador PI\main.c
                     a734   0x0025bc    program     extern C:\Users\JUNIOR\Google Drive\Maua\Aplicada2-Pic\labintegrado2014\Firmware\controlador PI\main.c
                     a735   0x0025be    program     extern C:\Users\JUNIOR\Google Drive\Maua\Aplicada2-Pic\labintegrado2014\Firmware\controlador PI\main.c
                     a736   0x0025c0    program     extern C:\Users\JUNIOR\Google Drive\Maua\Aplicada2-Pic\labintegrado2014\Firmware\controlador PI\main.c
                     a737   0x0025c2    program     extern C:\Users\JUNIOR\Google Drive\Maua\Aplicada2-Pic\labintegrado2014\Firmware\controlador PI\main.c
                     a738   0x0025c4    program     extern C:\Users\JUNIOR\Google Drive\Maua\Aplicada2-Pic\labintegrado2014\Firmware\controlador PI\main.c
                     a739   0x0025c6    program     extern C:\Users\JUNIOR\Google Drive\Maua\Aplicada2-Pic\labintegrado2014\Firmware\controlador PI\main.c
                     a740   0x0025c8    program     extern C:\Users\JUNIOR\Google Drive\Maua\Aplicada2-Pic\labintegrado2014\Firmware\controlador PI\main.c
                     a741   0x0025ca    program     extern C:\Users\JUNIOR\Google Drive\Maua\Aplicada2-Pic\labintegrado2014\Firmware\controlador PI\main.c
                     a742   0x0025cc    program     extern C:\Users\JUNIOR\Google Drive\Maua\Aplicada2-Pic\labintegrado2014\Firmware\controlador PI\main.c
                     a743   0x0025ce    program     extern C:\Users\JUNIOR\Google Drive\Maua\Aplicada2-Pic\labintegrado2014\Firmware\controlador PI\main.c
                     a744   0x0025d0    program     extern C:\Users\JUNIOR\Google Drive\Maua\Aplicada2-Pic\labintegrado2014\Firmware\controlador PI\main.c
                     a745   0x0025d2    program     extern C:\Users\JUNIOR\Google Drive\Maua\Aplicada2-Pic\labintegrado2014\Firmware\controlador PI\main.c
                     a746   0x0025d4    program     extern C:\Users\JUNIOR\Google Drive\Maua\Aplicada2-Pic\labintegrado2014\Firmware\controlador PI\main.c
                     a747   0x0025d6    program     extern C:\Users\JUNIOR\Google Drive\Maua\Aplicada2-Pic\labintegrado2014\Firmware\controlador PI\main.c
                     a748   0x0025d8    program     extern C:\Users\JUNIOR\Google Drive\Maua\Aplicada2-Pic\labintegrado2014\Firmware\controlador PI\main.c
                     a749   0x0025da    program     extern C:\Users\JUNIOR\Google Drive\Maua\Aplicada2-Pic\labintegrado2014\Firmware\controlador PI\main.c
                     a750   0x0025dc    program     extern C:\Users\JUNIOR\Google Drive\Maua\Aplicada2-Pic\labintegrado2014\Firmware\controlador PI\main.c
                     a751   0x0025de    program     extern C:\Users\JUNIOR\Google Drive\Maua\Aplicada2-Pic\labintegrado2014\Firmware\controlador PI\main.c
                     a752   0x0025e0    program     extern C:\Users\JUNIOR\Google Drive\Maua\Aplicada2-Pic\labintegrado2014\Firmware\controlador PI\main.c
                     a753   0x0025e2    program     extern C:\Users\JUNIOR\Google Drive\Maua\Aplicada2-Pic\labintegrado2014\Firmware\controlador PI\main.c
                     a754   0x0025e4    program     extern C:\Users\JUNIOR\Google Drive\Maua\Aplicada2-Pic\labintegrado2014\Firmware\controlador PI\main.c
                     a755   0x0025e6    program     extern C:\Users\JUNIOR\Google Drive\Maua\Aplicada2-Pic\labintegrado2014\Firmware\controlador PI\main.c
                     a756   0x0025e8    program     extern C:\Users\JUNIOR\Google Drive\Maua\Aplicada2-Pic\labintegrado2014\Firmware\controlador PI\main.c
                     a757   0x0025ea    program     extern C:\Users\JUNIOR\Google Drive\Maua\Aplicada2-Pic\labintegrado2014\Firmware\controlador PI\main.c
                     a758   0x0025ec    program     extern C:\Users\JUNIOR\Google Drive\Maua\Aplicada2-Pic\labintegrado2014\Firmware\controlador PI\main.c
                     a759   0x0025ee    program     extern C:\Users\JUNIOR\Google Drive\Maua\Aplicada2-Pic\labintegrado2014\Firmware\controlador PI\main.c
                     a760   0x0025f0    program     extern C:\Users\JUNIOR\Google Drive\Maua\Aplicada2-Pic\labintegrado2014\Firmware\controlador PI\main.c
                     a761   0x0025f2    program     extern C:\Users\JUNIOR\Google Drive\Maua\Aplicada2-Pic\labintegrado2014\Firmware\controlador PI\main.c
                     a762   0x0025f4    program     extern C:\Users\JUNIOR\Google Drive\Maua\Aplicada2-Pic\labintegrado2014\Firmware\controlador PI\main.c
                     a763   0x0025f6    program     extern C:\Users\JUNIOR\Google Drive\Maua\Aplicada2-Pic\labintegrado2014\Firmware\controlador PI\main.c
                     a764   0x0025f8    program     extern C:\Users\JUNIOR\Google Drive\Maua\Aplicada2-Pic\labintegrado2014\Firmware\controlador PI\main.c
                     a765   0x0025fa    program     extern C:\Users\JUNIOR\Google Drive\Maua\Aplicada2-Pic\labintegrado2014\Firmware\controlador PI\main.c
                     a766   0x0025fc    program     extern C:\Users\JUNIOR\Google Drive\Maua\Aplicada2-Pic\labintegrado2014\Firmware\controlador PI\main.c
                     a767   0x0025fe    program     extern C:\Users\JUNIOR\Google Drive\Maua\Aplicada2-Pic\labintegrado2014\Firmware\controlador PI\main.c
                     a768   0x002600    program     extern C:\Users\JUNIOR\Google Drive\Maua\Aplicada2-Pic\labintegrado2014\Firmware\controlador PI\main.c
                     a769   0x002602    program     extern C:\Users\JUNIOR\Google Drive\Maua\Aplicada2-Pic\labintegrado2014\Firmware\controlador PI\main.c
                     a770   0x002604    program     extern C:\Users\JUNIOR\Google Drive\Maua\Aplicada2-Pic\labintegrado2014\Firmware\controlador PI\main.c
                     a771   0x002606    program     extern C:\Users\JUNIOR\Google Drive\Maua\Aplicada2-Pic\labintegrado2014\Firmware\controlador PI\main.c
                     a772   0x002608    program     extern C:\Users\JUNIOR\Google Drive\Maua\Aplicada2-Pic\labintegrado2014\Firmware\controlador PI\main.c
                     a773   0x00260a    program     extern C:\Users\JUNIOR\Google Drive\Maua\Aplicada2-Pic\labintegrado2014\Firmware\controlador PI\main.c
                     a774   0x00260c    program     extern C:\Users\JUNIOR\Google Drive\Maua\Aplicada2-Pic\labintegrado2014\Firmware\controlador PI\main.c
                     a775   0x00260e    program     extern C:\Users\JUNIOR\Google Drive\Maua\Aplicada2-Pic\labintegrado2014\Firmware\controlador PI\main.c
                     a776   0x002610    program     extern C:\Users\JUNIOR\Google Drive\Maua\Aplicada2-Pic\labintegrado2014\Firmware\controlador PI\main.c
                     a777   0x002612    program     extern C:\Users\JUNIOR\Google Drive\Maua\Aplicada2-Pic\labintegrado2014\Firmware\controlador PI\main.c
                     a778   0x002614    program     extern C:\Users\JUNIOR\Google Drive\Maua\Aplicada2-Pic\labintegrado2014\Firmware\controlador PI\main.c
                     a779   0x002616    program     extern C:\Users\JUNIOR\Google Drive\Maua\Aplicada2-Pic\labintegrado2014\Firmware\controlador PI\main.c
                     a780   0x002618    program     extern C:\Users\JUNIOR\Google Drive\Maua\Aplicada2-Pic\labintegrado2014\Firmware\controlador PI\main.c
                     a781   0x00261a    program     extern C:\Users\JUNIOR\Google Drive\Maua\Aplicada2-Pic\labintegrado2014\Firmware\controlador PI\main.c
                     a782   0x00261c    program     extern C:\Users\JUNIOR\Google Drive\Maua\Aplicada2-Pic\labintegrado2014\Firmware\controlador PI\main.c
                     a783   0x00261e    program     extern C:\Users\JUNIOR\Google Drive\Maua\Aplicada2-Pic\labintegrado2014\Firmware\controlador PI\main.c
                     a784   0x002620    program     extern C:\Users\JUNIOR\Google Drive\Maua\Aplicada2-Pic\labintegrado2014\Firmware\controlador PI\main.c
                     a785   0x002622    program     extern C:\Users\JUNIOR\Google Drive\Maua\Aplicada2-Pic\labintegrado2014\Firmware\controlador PI\main.c
                     a786   0x002624    program     extern C:\Users\JUNIOR\Google Drive\Maua\Aplicada2-Pic\labintegrado2014\Firmware\controlador PI\main.c
                     a787   0x002626    program     extern C:\Users\JUNIOR\Google Drive\Maua\Aplicada2-Pic\labintegrado2014\Firmware\controlador PI\main.c
                     a788   0x002628    program     extern C:\Users\JUNIOR\Google Drive\Maua\Aplicada2-Pic\labintegrado2014\Firmware\controlador PI\main.c
                     a789   0x00262a    program     extern C:\Users\JUNIOR\Google Drive\Maua\Aplicada2-Pic\labintegrado2014\Firmware\controlador PI\main.c
                     a790   0x00262c    program     extern C:\Users\JUNIOR\Google Drive\Maua\Aplicada2-Pic\labintegrado2014\Firmware\controlador PI\main.c
                     a791   0x00262e    program     extern C:\Users\JUNIOR\Google Drive\Maua\Aplicada2-Pic\labintegrado2014\Firmware\controlador PI\main.c
                     a792   0x002630    program     extern C:\Users\JUNIOR\Google Drive\Maua\Aplicada2-Pic\labintegrado2014\Firmware\controlador PI\main.c
                     a793   0x002632    program     extern C:\Users\JUNIOR\Google Drive\Maua\Aplicada2-Pic\labintegrado2014\Firmware\controlador PI\main.c
                     a794   0x002634    program     extern C:\Users\JUNIOR\Google Drive\Maua\Aplicada2-Pic\labintegrado2014\Firmware\controlador PI\main.c
                     a795   0x002636    program     extern C:\Users\JUNIOR\Google Drive\Maua\Aplicada2-Pic\labintegrado2014\Firmware\controlador PI\main.c
                     a796   0x002638    program     extern C:\Users\JUNIOR\Google Drive\Maua\Aplicada2-Pic\labintegrado2014\Firmware\controlador PI\main.c
                     a797   0x00263a    program     extern C:\Users\JUNIOR\Google Drive\Maua\Aplicada2-Pic\labintegrado2014\Firmware\controlador PI\main.c
                     a798   0x00263c    program     extern C:\Users\JUNIOR\Google Drive\Maua\Aplicada2-Pic\labintegrado2014\Firmware\controlador PI\main.c
                     a799   0x00263e    program     extern C:\Users\JUNIOR\Google Drive\Maua\Aplicada2-Pic\labintegrado2014\Firmware\controlador PI\main.c
                     a800   0x002640    program     extern C:\Users\JUNIOR\Google Drive\Maua\Aplicada2-Pic\labintegrado2014\Firmware\controlador PI\main.c
                     a801   0x002642    program     extern C:\Users\JUNIOR\Google Drive\Maua\Aplicada2-Pic\labintegrado2014\Firmware\controlador PI\main.c
                     a802   0x002644    program     extern C:\Users\JUNIOR\Google Drive\Maua\Aplicada2-Pic\labintegrado2014\Firmware\controlador PI\main.c
                     a803   0x002646    program     extern C:\Users\JUNIOR\Google Drive\Maua\Aplicada2-Pic\labintegrado2014\Firmware\controlador PI\main.c
                     a804   0x002648    program     extern C:\Users\JUNIOR\Google Drive\Maua\Aplicada2-Pic\labintegrado2014\Firmware\controlador PI\main.c
                     a805   0x00264a    program     extern C:\Users\JUNIOR\Google Drive\Maua\Aplicada2-Pic\labintegrado2014\Firmware\controlador PI\main.c
                     a806   0x00264c    program     extern C:\Users\JUNIOR\Google Drive\Maua\Aplicada2-Pic\labintegrado2014\Firmware\controlador PI\main.c
                     a807   0x00264e    program     extern C:\Users\JUNIOR\Google Drive\Maua\Aplicada2-Pic\labintegrado2014\Firmware\controlador PI\main.c
                     a808   0x002650    program     extern C:\Users\JUNIOR\Google Drive\Maua\Aplicada2-Pic\labintegrado2014\Firmware\controlador PI\main.c
                     a809   0x002652    program     extern C:\Users\JUNIOR\Google Drive\Maua\Aplicada2-Pic\labintegrado2014\Firmware\controlador PI\main.c
                     a810   0x002654    program     extern C:\Users\JUNIOR\Google Drive\Maua\Aplicada2-Pic\labintegrado2014\Firmware\controlador PI\main.c
                     a811   0x002656    program     extern C:\Users\JUNIOR\Google Drive\Maua\Aplicada2-Pic\labintegrado2014\Firmware\controlador PI\main.c
                     a812   0x002658    program     extern C:\Users\JUNIOR\Google Drive\Maua\Aplicada2-Pic\labintegrado2014\Firmware\controlador PI\main.c
                     a813   0x00265a    program     extern C:\Users\JUNIOR\Google Drive\Maua\Aplicada2-Pic\labintegrado2014\Firmware\controlador PI\main.c
                     a814   0x00265c    program     extern C:\Users\JUNIOR\Google Drive\Maua\Aplicada2-Pic\labintegrado2014\Firmware\controlador PI\main.c
                     a815   0x00265e    program     extern C:\Users\JUNIOR\Google Drive\Maua\Aplicada2-Pic\labintegrado2014\Firmware\controlador PI\main.c
                     a816   0x002660    program     extern C:\Users\JUNIOR\Google Drive\Maua\Aplicada2-Pic\labintegrado2014\Firmware\controlador PI\main.c
                     a817   0x002662    program     extern C:\Users\JUNIOR\Google Drive\Maua\Aplicada2-Pic\labintegrado2014\Firmware\controlador PI\main.c
                     a818   0x002664    program     extern C:\Users\JUNIOR\Google Drive\Maua\Aplicada2-Pic\labintegrado2014\Firmware\controlador PI\main.c
                     a819   0x002666    program     extern C:\Users\JUNIOR\Google Drive\Maua\Aplicada2-Pic\labintegrado2014\Firmware\controlador PI\main.c
                     a820   0x002668    program     extern C:\Users\JUNIOR\Google Drive\Maua\Aplicada2-Pic\labintegrado2014\Firmware\controlador PI\main.c
                     a821   0x00266a    program     extern C:\Users\JUNIOR\Google Drive\Maua\Aplicada2-Pic\labintegrado2014\Firmware\controlador PI\main.c
                     a822   0x00266c    program     extern C:\Users\JUNIOR\Google Drive\Maua\Aplicada2-Pic\labintegrado2014\Firmware\controlador PI\main.c
                     a823   0x00266e    program     extern C:\Users\JUNIOR\Google Drive\Maua\Aplicada2-Pic\labintegrado2014\Firmware\controlador PI\main.c
                     a824   0x002670    program     extern C:\Users\JUNIOR\Google Drive\Maua\Aplicada2-Pic\labintegrado2014\Firmware\controlador PI\main.c
                     a825   0x002672    program     extern C:\Users\JUNIOR\Google Drive\Maua\Aplicada2-Pic\labintegrado2014\Firmware\controlador PI\main.c
                     a826   0x002674    program     extern C:\Users\JUNIOR\Google Drive\Maua\Aplicada2-Pic\labintegrado2014\Firmware\controlador PI\main.c
                     a827   0x002676    program     extern C:\Users\JUNIOR\Google Drive\Maua\Aplicada2-Pic\labintegrado2014\Firmware\controlador PI\main.c
                     a828   0x002678    program     extern C:\Users\JUNIOR\Google Drive\Maua\Aplicada2-Pic\labintegrado2014\Firmware\controlador PI\main.c
                     a829   0x00267a    program     extern C:\Users\JUNIOR\Google Drive\Maua\Aplicada2-Pic\labintegrado2014\Firmware\controlador PI\main.c
                     a830   0x00267c    program     extern C:\Users\JUNIOR\Google Drive\Maua\Aplicada2-Pic\labintegrado2014\Firmware\controlador PI\main.c
                     a831   0x00267e    program     extern C:\Users\JUNIOR\Google Drive\Maua\Aplicada2-Pic\labintegrado2014\Firmware\controlador PI\main.c
                     a832   0x002680    program     extern C:\Users\JUNIOR\Google Drive\Maua\Aplicada2-Pic\labintegrado2014\Firmware\controlador PI\main.c
                     a833   0x002682    program     extern C:\Users\JUNIOR\Google Drive\Maua\Aplicada2-Pic\labintegrado2014\Firmware\controlador PI\main.c
                     a834   0x002684    program     extern C:\Users\JUNIOR\Google Drive\Maua\Aplicada2-Pic\labintegrado2014\Firmware\controlador PI\main.c
                     a835   0x002686    program     extern C:\Users\JUNIOR\Google Drive\Maua\Aplicada2-Pic\labintegrado2014\Firmware\controlador PI\main.c
                     a836   0x002688    program     extern C:\Users\JUNIOR\Google Drive\Maua\Aplicada2-Pic\labintegrado2014\Firmware\controlador PI\main.c
                     a837   0x00268a    program     extern C:\Users\JUNIOR\Google Drive\Maua\Aplicada2-Pic\labintegrado2014\Firmware\controlador PI\main.c
                     a838   0x00268c    program     extern C:\Users\JUNIOR\Google Drive\Maua\Aplicada2-Pic\labintegrado2014\Firmware\controlador PI\main.c
                     a839   0x00268e    program     extern C:\Users\JUNIOR\Google Drive\Maua\Aplicada2-Pic\labintegrado2014\Firmware\controlador PI\main.c
                     a840   0x002690    program     extern C:\Users\JUNIOR\Google Drive\Maua\Aplicada2-Pic\labintegrado2014\Firmware\controlador PI\main.c
                     a841   0x002692    program     extern C:\Users\JUNIOR\Google Drive\Maua\Aplicada2-Pic\labintegrado2014\Firmware\controlador PI\main.c
                     a842   0x002694    program     extern C:\Users\JUNIOR\Google Drive\Maua\Aplicada2-Pic\labintegrado2014\Firmware\controlador PI\main.c
                     a843   0x002696    program     extern C:\Users\JUNIOR\Google Drive\Maua\Aplicada2-Pic\labintegrado2014\Firmware\controlador PI\main.c
                     a844   0x002698    program     extern C:\Users\JUNIOR\Google Drive\Maua\Aplicada2-Pic\labintegrado2014\Firmware\controlador PI\main.c
                     a845   0x00269a    program     extern C:\Users\JUNIOR\Google Drive\Maua\Aplicada2-Pic\labintegrado2014\Firmware\controlador PI\main.c
                     a846   0x00269c    program     extern C:\Users\JUNIOR\Google Drive\Maua\Aplicada2-Pic\labintegrado2014\Firmware\controlador PI\main.c
                     a847   0x00269e    program     extern C:\Users\JUNIOR\Google Drive\Maua\Aplicada2-Pic\labintegrado2014\Firmware\controlador PI\main.c
                     a848   0x0026a0    program     extern C:\Users\JUNIOR\Google Drive\Maua\Aplicada2-Pic\labintegrado2014\Firmware\controlador PI\main.c
                     a849   0x0026a2    program     extern C:\Users\JUNIOR\Google Drive\Maua\Aplicada2-Pic\labintegrado2014\Firmware\controlador PI\main.c
                     a850   0x0026a4    program     extern C:\Users\JUNIOR\Google Drive\Maua\Aplicada2-Pic\labintegrado2014\Firmware\controlador PI\main.c
                     a851   0x0026a6    program     extern C:\Users\JUNIOR\Google Drive\Maua\Aplicada2-Pic\labintegrado2014\Firmware\controlador PI\main.c
                     a852   0x0026a8    program     extern C:\Users\JUNIOR\Google Drive\Maua\Aplicada2-Pic\labintegrado2014\Firmware\controlador PI\main.c
                     a853   0x0026aa    program     extern C:\Users\JUNIOR\Google Drive\Maua\Aplicada2-Pic\labintegrado2014\Firmware\controlador PI\main.c
                     a854   0x0026ac    program     extern C:\Users\JUNIOR\Google Drive\Maua\Aplicada2-Pic\labintegrado2014\Firmware\controlador PI\main.c
                     a855   0x0026ae    program     extern C:\Users\JUNIOR\Google Drive\Maua\Aplicada2-Pic\labintegrado2014\Firmware\controlador PI\main.c
                     a856   0x0026b0    program     extern C:\Users\JUNIOR\Google Drive\Maua\Aplicada2-Pic\labintegrado2014\Firmware\controlador PI\main.c
                     a857   0x0026b2    program     extern C:\Users\JUNIOR\Google Drive\Maua\Aplicada2-Pic\labintegrado2014\Firmware\controlador PI\main.c
                     a858   0x0026b4    program     extern C:\Users\JUNIOR\Google Drive\Maua\Aplicada2-Pic\labintegrado2014\Firmware\controlador PI\main.c
                     a859   0x0026b6    program     extern C:\Users\JUNIOR\Google Drive\Maua\Aplicada2-Pic\labintegrado2014\Firmware\controlador PI\main.c
                     a860   0x0026b8    program     extern C:\Users\JUNIOR\Google Drive\Maua\Aplicada2-Pic\labintegrado2014\Firmware\controlador PI\main.c
                     a861   0x0026ba    program     extern C:\Users\JUNIOR\Google Drive\Maua\Aplicada2-Pic\labintegrado2014\Firmware\controlador PI\main.c
                     a862   0x0026bc    program     extern C:\Users\JUNIOR\Google Drive\Maua\Aplicada2-Pic\labintegrado2014\Firmware\controlador PI\main.c
                     a863   0x0026be    program     extern C:\Users\JUNIOR\Google Drive\Maua\Aplicada2-Pic\labintegrado2014\Firmware\controlador PI\main.c
                     a864   0x0026c0    program     extern C:\Users\JUNIOR\Google Drive\Maua\Aplicada2-Pic\labintegrado2014\Firmware\controlador PI\main.c
                     a865   0x0026c2    program     extern C:\Users\JUNIOR\Google Drive\Maua\Aplicada2-Pic\labintegrado2014\Firmware\controlador PI\main.c
                     a866   0x0026c4    program     extern C:\Users\JUNIOR\Google Drive\Maua\Aplicada2-Pic\labintegrado2014\Firmware\controlador PI\main.c
                     a867   0x0026c6    program     extern C:\Users\JUNIOR\Google Drive\Maua\Aplicada2-Pic\labintegrado2014\Firmware\controlador PI\main.c
                     a868   0x0026c8    program     extern C:\Users\JUNIOR\Google Drive\Maua\Aplicada2-Pic\labintegrado2014\Firmware\controlador PI\main.c
                     a869   0x0026ca    program     extern C:\Users\JUNIOR\Google Drive\Maua\Aplicada2-Pic\labintegrado2014\Firmware\controlador PI\main.c
                     a870   0x0026cc    program     extern C:\Users\JUNIOR\Google Drive\Maua\Aplicada2-Pic\labintegrado2014\Firmware\controlador PI\main.c
                     a871   0x0026ce    program     extern C:\Users\JUNIOR\Google Drive\Maua\Aplicada2-Pic\labintegrado2014\Firmware\controlador PI\main.c
                     a872   0x0026d0    program     extern C:\Users\JUNIOR\Google Drive\Maua\Aplicada2-Pic\labintegrado2014\Firmware\controlador PI\main.c
                     a873   0x0026d2    program     extern C:\Users\JUNIOR\Google Drive\Maua\Aplicada2-Pic\labintegrado2014\Firmware\controlador PI\main.c
                     a874   0x0026d4    program     extern C:\Users\JUNIOR\Google Drive\Maua\Aplicada2-Pic\labintegrado2014\Firmware\controlador PI\main.c
                     a875   0x0026d6    program     extern C:\Users\JUNIOR\Google Drive\Maua\Aplicada2-Pic\labintegrado2014\Firmware\controlador PI\main.c
                     a876   0x0026d8    program     extern C:\Users\JUNIOR\Google Drive\Maua\Aplicada2-Pic\labintegrado2014\Firmware\controlador PI\main.c
                     a877   0x0026da    program     extern C:\Users\JUNIOR\Google Drive\Maua\Aplicada2-Pic\labintegrado2014\Firmware\controlador PI\main.c
                     a878   0x0026dc    program     extern C:\Users\JUNIOR\Google Drive\Maua\Aplicada2-Pic\labintegrado2014\Firmware\controlador PI\main.c
                     a879   0x0026de    program     extern C:\Users\JUNIOR\Google Drive\Maua\Aplicada2-Pic\labintegrado2014\Firmware\controlador PI\main.c
                     a880   0x0026e0    program     extern C:\Users\JUNIOR\Google Drive\Maua\Aplicada2-Pic\labintegrado2014\Firmware\controlador PI\main.c
                     a881   0x0026e2    program     extern C:\Users\JUNIOR\Google Drive\Maua\Aplicada2-Pic\labintegrado2014\Firmware\controlador PI\main.c
                     a882   0x0026e4    program     extern C:\Users\JUNIOR\Google Drive\Maua\Aplicada2-Pic\labintegrado2014\Firmware\controlador PI\main.c
                     a883   0x0026e6    program     extern C:\Users\JUNIOR\Google Drive\Maua\Aplicada2-Pic\labintegrado2014\Firmware\controlador PI\main.c
                     a884   0x0026e8    program     extern C:\Users\JUNIOR\Google Drive\Maua\Aplicada2-Pic\labintegrado2014\Firmware\controlador PI\main.c
                     a885   0x0026ea    program     extern C:\Users\JUNIOR\Google Drive\Maua\Aplicada2-Pic\labintegrado2014\Firmware\controlador PI\main.c
                     a886   0x0026ec    program     extern C:\Users\JUNIOR\Google Drive\Maua\Aplicada2-Pic\labintegrado2014\Firmware\controlador PI\main.c
                     a887   0x0026ee    program     extern C:\Users\JUNIOR\Google Drive\Maua\Aplicada2-Pic\labintegrado2014\Firmware\controlador PI\main.c
                     a888   0x0026f0    program     extern C:\Users\JUNIOR\Google Drive\Maua\Aplicada2-Pic\labintegrado2014\Firmware\controlador PI\main.c
                     a889   0x0026f2    program     extern C:\Users\JUNIOR\Google Drive\Maua\Aplicada2-Pic\labintegrado2014\Firmware\controlador PI\main.c
                     a890   0x0026f4    program     extern C:\Users\JUNIOR\Google Drive\Maua\Aplicada2-Pic\labintegrado2014\Firmware\controlador PI\main.c
                     a891   0x0026f6    program     extern C:\Users\JUNIOR\Google Drive\Maua\Aplicada2-Pic\labintegrado2014\Firmware\controlador PI\main.c
                     a892   0x0026f8    program     extern C:\Users\JUNIOR\Google Drive\Maua\Aplicada2-Pic\labintegrado2014\Firmware\controlador PI\main.c
                     a893   0x0026fa    program     extern C:\Users\JUNIOR\Google Drive\Maua\Aplicada2-Pic\labintegrado2014\Firmware\controlador PI\main.c
                     a894   0x0026fc    program     extern C:\Users\JUNIOR\Google Drive\Maua\Aplicada2-Pic\labintegrado2014\Firmware\controlador PI\main.c
                     a895   0x0026fe    program     extern C:\Users\JUNIOR\Google Drive\Maua\Aplicada2-Pic\labintegrado2014\Firmware\controlador PI\main.c
                     a896   0x002700    program     extern C:\Users\JUNIOR\Google Drive\Maua\Aplicada2-Pic\labintegrado2014\Firmware\controlador PI\main.c
                     a897   0x002702    program     extern C:\Users\JUNIOR\Google Drive\Maua\Aplicada2-Pic\labintegrado2014\Firmware\controlador PI\main.c
                     a898   0x002704    program     extern C:\Users\JUNIOR\Google Drive\Maua\Aplicada2-Pic\labintegrado2014\Firmware\controlador PI\main.c
                     a899   0x002706    program     extern C:\Users\JUNIOR\Google Drive\Maua\Aplicada2-Pic\labintegrado2014\Firmware\controlador PI\main.c
                     a900   0x002708    program     extern C:\Users\JUNIOR\Google Drive\Maua\Aplicada2-Pic\labintegrado2014\Firmware\controlador PI\main.c
                     a901   0x00270a    program     extern C:\Users\JUNIOR\Google Drive\Maua\Aplicada2-Pic\labintegrado2014\Firmware\controlador PI\main.c
                     a902   0x00270c    program     extern C:\Users\JUNIOR\Google Drive\Maua\Aplicada2-Pic\labintegrado2014\Firmware\controlador PI\main.c
                     a903   0x00270e    program     extern C:\Users\JUNIOR\Google Drive\Maua\Aplicada2-Pic\labintegrado2014\Firmware\controlador PI\main.c
                     a904   0x002710    program     extern C:\Users\JUNIOR\Google Drive\Maua\Aplicada2-Pic\labintegrado2014\Firmware\controlador PI\main.c
                     a905   0x002712    program     extern C:\Users\JUNIOR\Google Drive\Maua\Aplicada2-Pic\labintegrado2014\Firmware\controlador PI\main.c
                     a906   0x002714    program     extern C:\Users\JUNIOR\Google Drive\Maua\Aplicada2-Pic\labintegrado2014\Firmware\controlador PI\main.c
                     a907   0x002716    program     extern C:\Users\JUNIOR\Google Drive\Maua\Aplicada2-Pic\labintegrado2014\Firmware\controlador PI\main.c
                     a908   0x002718    program     extern C:\Users\JUNIOR\Google Drive\Maua\Aplicada2-Pic\labintegrado2014\Firmware\controlador PI\main.c
                     a909   0x00271a    program     extern C:\Users\JUNIOR\Google Drive\Maua\Aplicada2-Pic\labintegrado2014\Firmware\controlador PI\main.c
                     a910   0x00271c    program     extern C:\Users\JUNIOR\Google Drive\Maua\Aplicada2-Pic\labintegrado2014\Firmware\controlador PI\main.c
                     a911   0x00271e    program     extern C:\Users\JUNIOR\Google Drive\Maua\Aplicada2-Pic\labintegrado2014\Firmware\controlador PI\main.c
                     a912   0x002720    program     extern C:\Users\JUNIOR\Google Drive\Maua\Aplicada2-Pic\labintegrado2014\Firmware\controlador PI\main.c
                     a913   0x002722    program     extern C:\Users\JUNIOR\Google Drive\Maua\Aplicada2-Pic\labintegrado2014\Firmware\controlador PI\main.c
                     a914   0x002724    program     extern C:\Users\JUNIOR\Google Drive\Maua\Aplicada2-Pic\labintegrado2014\Firmware\controlador PI\main.c
                     a915   0x002726    program     extern C:\Users\JUNIOR\Google Drive\Maua\Aplicada2-Pic\labintegrado2014\Firmware\controlador PI\main.c
                     a916   0x002728    program     extern C:\Users\JUNIOR\Google Drive\Maua\Aplicada2-Pic\labintegrado2014\Firmware\controlador PI\main.c
                     a917   0x00272a    program     extern C:\Users\JUNIOR\Google Drive\Maua\Aplicada2-Pic\labintegrado2014\Firmware\controlador PI\main.c
                     a918   0x00272c    program     extern C:\Users\JUNIOR\Google Drive\Maua\Aplicada2-Pic\labintegrado2014\Firmware\controlador PI\main.c
                     a919   0x00272e    program     extern C:\Users\JUNIOR\Google Drive\Maua\Aplicada2-Pic\labintegrado2014\Firmware\controlador PI\main.c
                     a920   0x002730    program     extern C:\Users\JUNIOR\Google Drive\Maua\Aplicada2-Pic\labintegrado2014\Firmware\controlador PI\main.c
                     a921   0x002732    program     extern C:\Users\JUNIOR\Google Drive\Maua\Aplicada2-Pic\labintegrado2014\Firmware\controlador PI\main.c
                     a922   0x002734    program     extern C:\Users\JUNIOR\Google Drive\Maua\Aplicada2-Pic\labintegrado2014\Firmware\controlador PI\main.c
                     a923   0x002736    program     extern C:\Users\JUNIOR\Google Drive\Maua\Aplicada2-Pic\labintegrado2014\Firmware\controlador PI\main.c
                     a924   0x002738    program     extern C:\Users\JUNIOR\Google Drive\Maua\Aplicada2-Pic\labintegrado2014\Firmware\controlador PI\main.c
                     a925   0x00273a    program     extern C:\Users\JUNIOR\Google Drive\Maua\Aplicada2-Pic\labintegrado2014\Firmware\controlador PI\main.c
                     a926   0x00273c    program     extern C:\Users\JUNIOR\Google Drive\Maua\Aplicada2-Pic\labintegrado2014\Firmware\controlador PI\main.c
                     a927   0x00273e    program     extern C:\Users\JUNIOR\Google Drive\Maua\Aplicada2-Pic\labintegrado2014\Firmware\controlador PI\main.c
                     a928   0x002740    program     extern C:\Users\JUNIOR\Google Drive\Maua\Aplicada2-Pic\labintegrado2014\Firmware\controlador PI\main.c
                     a929   0x002742    program     extern C:\Users\JUNIOR\Google Drive\Maua\Aplicada2-Pic\labintegrado2014\Firmware\controlador PI\main.c
                     a930   0x002744    program     extern C:\Users\JUNIOR\Google Drive\Maua\Aplicada2-Pic\labintegrado2014\Firmware\controlador PI\main.c
                     a931   0x002746    program     extern C:\Users\JUNIOR\Google Drive\Maua\Aplicada2-Pic\labintegrado2014\Firmware\controlador PI\main.c
                     a932   0x002748    program     extern C:\Users\JUNIOR\Google Drive\Maua\Aplicada2-Pic\labintegrado2014\Firmware\controlador PI\main.c
                     a933   0x00274a    program     extern C:\Users\JUNIOR\Google Drive\Maua\Aplicada2-Pic\labintegrado2014\Firmware\controlador PI\main.c
                     a934   0x00274c    program     extern C:\Users\JUNIOR\Google Drive\Maua\Aplicada2-Pic\labintegrado2014\Firmware\controlador PI\main.c
                     a935   0x00274e    program     extern C:\Users\JUNIOR\Google Drive\Maua\Aplicada2-Pic\labintegrado2014\Firmware\controlador PI\main.c
                     a936   0x002750    program     extern C:\Users\JUNIOR\Google Drive\Maua\Aplicada2-Pic\labintegrado2014\Firmware\controlador PI\main.c
                     a937   0x002752    program     extern C:\Users\JUNIOR\Google Drive\Maua\Aplicada2-Pic\labintegrado2014\Firmware\controlador PI\main.c
                     a938   0x002754    program     extern C:\Users\JUNIOR\Google Drive\Maua\Aplicada2-Pic\labintegrado2014\Firmware\controlador PI\main.c
                     a939   0x002756    program     extern C:\Users\JUNIOR\Google Drive\Maua\Aplicada2-Pic\labintegrado2014\Firmware\controlador PI\main.c
                     a940   0x002758    program     extern C:\Users\JUNIOR\Google Drive\Maua\Aplicada2-Pic\labintegrado2014\Firmware\controlador PI\main.c
                     a941   0x00275a    program     extern C:\Users\JUNIOR\Google Drive\Maua\Aplicada2-Pic\labintegrado2014\Firmware\controlador PI\main.c
                     a942   0x00275c    program     extern C:\Users\JUNIOR\Google Drive\Maua\Aplicada2-Pic\labintegrado2014\Firmware\controlador PI\main.c
                     a943   0x00275e    program     extern C:\Users\JUNIOR\Google Drive\Maua\Aplicada2-Pic\labintegrado2014\Firmware\controlador PI\main.c
                     a944   0x002760    program     extern C:\Users\JUNIOR\Google Drive\Maua\Aplicada2-Pic\labintegrado2014\Firmware\controlador PI\main.c
                     a945   0x002762    program     extern C:\Users\JUNIOR\Google Drive\Maua\Aplicada2-Pic\labintegrado2014\Firmware\controlador PI\main.c
                     a946   0x002764    program     extern C:\Users\JUNIOR\Google Drive\Maua\Aplicada2-Pic\labintegrado2014\Firmware\controlador PI\main.c
                     a947   0x002766    program     extern C:\Users\JUNIOR\Google Drive\Maua\Aplicada2-Pic\labintegrado2014\Firmware\controlador PI\main.c
                     a948   0x002768    program     extern C:\Users\JUNIOR\Google Drive\Maua\Aplicada2-Pic\labintegrado2014\Firmware\controlador PI\main.c
                     a949   0x00276a    program     extern C:\Users\JUNIOR\Google Drive\Maua\Aplicada2-Pic\labintegrado2014\Firmware\controlador PI\main.c
                     a950   0x00276c    program     extern C:\Users\JUNIOR\Google Drive\Maua\Aplicada2-Pic\labintegrado2014\Firmware\controlador PI\main.c
                     a951   0x00276e    program     extern C:\Users\JUNIOR\Google Drive\Maua\Aplicada2-Pic\labintegrado2014\Firmware\controlador PI\main.c
                     a952   0x002770    program     extern C:\Users\JUNIOR\Google Drive\Maua\Aplicada2-Pic\labintegrado2014\Firmware\controlador PI\main.c
                     a953   0x002772    program     extern C:\Users\JUNIOR\Google Drive\Maua\Aplicada2-Pic\labintegrado2014\Firmware\controlador PI\main.c
                     a954   0x002774    program     extern C:\Users\JUNIOR\Google Drive\Maua\Aplicada2-Pic\labintegrado2014\Firmware\controlador PI\main.c
                     a955   0x002776    program     extern C:\Users\JUNIOR\Google Drive\Maua\Aplicada2-Pic\labintegrado2014\Firmware\controlador PI\main.c
                     a956   0x002778    program     extern C:\Users\JUNIOR\Google Drive\Maua\Aplicada2-Pic\labintegrado2014\Firmware\controlador PI\main.c
                     a957   0x00277a    program     extern C:\Users\JUNIOR\Google Drive\Maua\Aplicada2-Pic\labintegrado2014\Firmware\controlador PI\main.c
                     a958   0x00277c    program     extern C:\Users\JUNIOR\Google Drive\Maua\Aplicada2-Pic\labintegrado2014\Firmware\controlador PI\main.c
                     a959   0x00277e    program     extern C:\Users\JUNIOR\Google Drive\Maua\Aplicada2-Pic\labintegrado2014\Firmware\controlador PI\main.c
                     a960   0x002780    program     extern C:\Users\JUNIOR\Google Drive\Maua\Aplicada2-Pic\labintegrado2014\Firmware\controlador PI\main.c
                     a961   0x002782    program     extern C:\Users\JUNIOR\Google Drive\Maua\Aplicada2-Pic\labintegrado2014\Firmware\controlador PI\main.c
                     a962   0x002784    program     extern C:\Users\JUNIOR\Google Drive\Maua\Aplicada2-Pic\labintegrado2014\Firmware\controlador PI\main.c
                     a963   0x002786    program     extern C:\Users\JUNIOR\Google Drive\Maua\Aplicada2-Pic\labintegrado2014\Firmware\controlador PI\main.c
                     a964   0x002788    program     extern C:\Users\JUNIOR\Google Drive\Maua\Aplicada2-Pic\labintegrado2014\Firmware\controlador PI\main.c
                     a965   0x00278a    program     extern C:\Users\JUNIOR\Google Drive\Maua\Aplicada2-Pic\labintegrado2014\Firmware\controlador PI\main.c
                     a966   0x00278c    program     extern C:\Users\JUNIOR\Google Drive\Maua\Aplicada2-Pic\labintegrado2014\Firmware\controlador PI\main.c
                     a967   0x00278e    program     extern C:\Users\JUNIOR\Google Drive\Maua\Aplicada2-Pic\labintegrado2014\Firmware\controlador PI\main.c
                     a968   0x002790    program     extern C:\Users\JUNIOR\Google Drive\Maua\Aplicada2-Pic\labintegrado2014\Firmware\controlador PI\main.c
                     a969   0x002792    program     extern C:\Users\JUNIOR\Google Drive\Maua\Aplicada2-Pic\labintegrado2014\Firmware\controlador PI\main.c
                     a970   0x002794    program     extern C:\Users\JUNIOR\Google Drive\Maua\Aplicada2-Pic\labintegrado2014\Firmware\controlador PI\main.c
                     a971   0x002796    program     extern C:\Users\JUNIOR\Google Drive\Maua\Aplicada2-Pic\labintegrado2014\Firmware\controlador PI\main.c
                     a972   0x002798    program     extern C:\Users\JUNIOR\Google Drive\Maua\Aplicada2-Pic\labintegrado2014\Firmware\controlador PI\main.c
                     a973   0x00279a    program     extern C:\Users\JUNIOR\Google Drive\Maua\Aplicada2-Pic\labintegrado2014\Firmware\controlador PI\main.c
                     a974   0x00279c    program     extern C:\Users\JUNIOR\Google Drive\Maua\Aplicada2-Pic\labintegrado2014\Firmware\controlador PI\main.c
                     a975   0x00279e    program     extern C:\Users\JUNIOR\Google Drive\Maua\Aplicada2-Pic\labintegrado2014\Firmware\controlador PI\main.c
                     a976   0x0027a0    program     extern C:\Users\JUNIOR\Google Drive\Maua\Aplicada2-Pic\labintegrado2014\Firmware\controlador PI\main.c
                     a977   0x0027a2    program     extern C:\Users\JUNIOR\Google Drive\Maua\Aplicada2-Pic\labintegrado2014\Firmware\controlador PI\main.c
                     a978   0x0027a4    program     extern C:\Users\JUNIOR\Google Drive\Maua\Aplicada2-Pic\labintegrado2014\Firmware\controlador PI\main.c
                     a979   0x0027a6    program     extern C:\Users\JUNIOR\Google Drive\Maua\Aplicada2-Pic\labintegrado2014\Firmware\controlador PI\main.c
                     a980   0x0027a8    program     extern C:\Users\JUNIOR\Google Drive\Maua\Aplicada2-Pic\labintegrado2014\Firmware\controlador PI\main.c
                     a981   0x0027aa    program     extern C:\Users\JUNIOR\Google Drive\Maua\Aplicada2-Pic\labintegrado2014\Firmware\controlador PI\main.c
                     a982   0x0027ac    program     extern C:\Users\JUNIOR\Google Drive\Maua\Aplicada2-Pic\labintegrado2014\Firmware\controlador PI\main.c
                     a983   0x0027ae    program     extern C:\Users\JUNIOR\Google Drive\Maua\Aplicada2-Pic\labintegrado2014\Firmware\controlador PI\main.c
                     a984   0x0027b0    program     extern C:\Users\JUNIOR\Google Drive\Maua\Aplicada2-Pic\labintegrado2014\Firmware\controlador PI\main.c
                     a985   0x0027b2    program     extern C:\Users\JUNIOR\Google Drive\Maua\Aplicada2-Pic\labintegrado2014\Firmware\controlador PI\main.c
                     a986   0x0027b4    program     extern C:\Users\JUNIOR\Google Drive\Maua\Aplicada2-Pic\labintegrado2014\Firmware\controlador PI\main.c
                     a987   0x0027b6    program     extern C:\Users\JUNIOR\Google Drive\Maua\Aplicada2-Pic\labintegrado2014\Firmware\controlador PI\main.c
                     a988   0x0027b8    program     extern C:\Users\JUNIOR\Google Drive\Maua\Aplicada2-Pic\labintegrado2014\Firmware\controlador PI\main.c
                     a989   0x0027ba    program     extern C:\Users\JUNIOR\Google Drive\Maua\Aplicada2-Pic\labintegrado2014\Firmware\controlador PI\main.c
                     a990   0x0027bc    program     extern C:\Users\JUNIOR\Google Drive\Maua\Aplicada2-Pic\labintegrado2014\Firmware\controlador PI\main.c
                     a991   0x0027be    program     extern C:\Users\JUNIOR\Google Drive\Maua\Aplicada2-Pic\labintegrado2014\Firmware\controlador PI\main.c
                     a992   0x0027c0    program     extern C:\Users\JUNIOR\Google Drive\Maua\Aplicada2-Pic\labintegrado2014\Firmware\controlador PI\main.c
                     a993   0x0027c2    program     extern C:\Users\JUNIOR\Google Drive\Maua\Aplicada2-Pic\labintegrado2014\Firmware\controlador PI\main.c
                     a994   0x0027c4    program     extern C:\Users\JUNIOR\Google Drive\Maua\Aplicada2-Pic\labintegrado2014\Firmware\controlador PI\main.c
                     a995   0x0027c6    program     extern C:\Users\JUNIOR\Google Drive\Maua\Aplicada2-Pic\labintegrado2014\Firmware\controlador PI\main.c
                     a996   0x0027c8    program     extern C:\Users\JUNIOR\Google Drive\Maua\Aplicada2-Pic\labintegrado2014\Firmware\controlador PI\main.c
                     a997   0x0027ca    program     extern C:\Users\JUNIOR\Google Drive\Maua\Aplicada2-Pic\labintegrado2014\Firmware\controlador PI\main.c
                     a998   0x0027cc    program     extern C:\Users\JUNIOR\Google Drive\Maua\Aplicada2-Pic\labintegrado2014\Firmware\controlador PI\main.c
                     a999   0x0027ce    program     extern C:\Users\JUNIOR\Google Drive\Maua\Aplicada2-Pic\labintegrado2014\Firmware\controlador PI\main.c
                    a1000   0x0027d0    program     extern C:\Users\JUNIOR\Google Drive\Maua\Aplicada2-Pic\labintegrado2014\Firmware\controlador PI\main.c
                    a1001   0x0027d2    program     extern C:\Users\JUNIOR\Google Drive\Maua\Aplicada2-Pic\labintegrado2014\Firmware\controlador PI\main.c
                    a1002   0x0027d4    program     extern C:\Users\JUNIOR\Google Drive\Maua\Aplicada2-Pic\labintegrado2014\Firmware\controlador PI\main.c
                    a1003   0x0027d6    program     extern C:\Users\JUNIOR\Google Drive\Maua\Aplicada2-Pic\labintegrado2014\Firmware\controlador PI\main.c
                    a1004   0x0027d8    program     extern C:\Users\JUNIOR\Google Drive\Maua\Aplicada2-Pic\labintegrado2014\Firmware\controlador PI\main.c
                    a1005   0x0027da    program     extern C:\Users\JUNIOR\Google Drive\Maua\Aplicada2-Pic\labintegrado2014\Firmware\controlador PI\main.c
                    a1006   0x0027dc    program     extern C:\Users\JUNIOR\Google Drive\Maua\Aplicada2-Pic\labintegrado2014\Firmware\controlador PI\main.c
                    a1007   0x0027de    program     extern C:\Users\JUNIOR\Google Drive\Maua\Aplicada2-Pic\labintegrado2014\Firmware\controlador PI\main.c
                    a1008   0x0027e0    program     extern C:\Users\JUNIOR\Google Drive\Maua\Aplicada2-Pic\labintegrado2014\Firmware\controlador PI\main.c
                    a1009   0x0027e2    program     extern C:\Users\JUNIOR\Google Drive\Maua\Aplicada2-Pic\labintegrado2014\Firmware\controlador PI\main.c
                    a1010   0x0027e4    program     extern C:\Users\JUNIOR\Google Drive\Maua\Aplicada2-Pic\labintegrado2014\Firmware\controlador PI\main.c
                    a1011   0x0027e6    program     extern C:\Users\JUNIOR\Google Drive\Maua\Aplicada2-Pic\labintegrado2014\Firmware\controlador PI\main.c
                    a1012   0x0027e8    program     extern C:\Users\JUNIOR\Google Drive\Maua\Aplicada2-Pic\labintegrado2014\Firmware\controlador PI\main.c
                    a1013   0x0027ea    program     extern C:\Users\JUNIOR\Google Drive\Maua\Aplicada2-Pic\labintegrado2014\Firmware\controlador PI\main.c
                    a1014   0x0027ec    program     extern C:\Users\JUNIOR\Google Drive\Maua\Aplicada2-Pic\labintegrado2014\Firmware\controlador PI\main.c
                    a1015   0x0027ee    program     extern C:\Users\JUNIOR\Google Drive\Maua\Aplicada2-Pic\labintegrado2014\Firmware\controlador PI\main.c
                    a1016   0x0027f0    program     extern C:\Users\JUNIOR\Google Drive\Maua\Aplicada2-Pic\labintegrado2014\Firmware\controlador PI\main.c
                    a1017   0x0027f2    program     extern C:\Users\JUNIOR\Google Drive\Maua\Aplicada2-Pic\labintegrado2014\Firmware\controlador PI\main.c
                    a1018   0x0027f4    program     extern C:\Users\JUNIOR\Google Drive\Maua\Aplicada2-Pic\labintegrado2014\Firmware\controlador PI\main.c
                    a1019   0x0027f6    program     extern C:\Users\JUNIOR\Google Drive\Maua\Aplicada2-Pic\labintegrado2014\Firmware\controlador PI\main.c
                    a1020   0x0027f8    program     extern C:\Users\JUNIOR\Google Drive\Maua\Aplicada2-Pic\labintegrado2014\Firmware\controlador PI\main.c
                    a1021   0x0027fa    program     extern C:\Users\JUNIOR\Google Drive\Maua\Aplicada2-Pic\labintegrado2014\Firmware\controlador PI\main.c
                    a1022   0x0027fc    program     extern C:\Users\JUNIOR\Google Drive\Maua\Aplicada2-Pic\labintegrado2014\Firmware\controlador PI\main.c
                    a1023   0x0027fe    program     extern C:\Users\JUNIOR\Google Drive\Maua\Aplicada2-Pic\labintegrado2014\Firmware\controlador PI\main.c
               __config_0   0x300001    program     static C:\Users\JUNIOR\Google Drive\Maua\Aplicada2-Pic\labintegrado2014\Firmware\controlador PI\main.c
               __config_1   0x300002    program     static C:\Users\JUNIOR\Google Drive\Maua\Aplicada2-Pic\labintegrado2014\Firmware\controlador PI\main.c
               __config_2   0x300003    program     static C:\Users\JUNIOR\Google Drive\Maua\Aplicada2-Pic\labintegrado2014\Firmware\controlador PI\main.c
               __config_3   0x300006    program     static C:\Users\JUNIOR\Google Drive\Maua\Aplicada2-Pic\labintegrado2014\Firmware\controlador PI\main.c
                  __tmp_0   0x000000       data     static E:\3.46\pic18-lt\cxx-framework\src\pmc_common\PWM\pw1setdc.c
                  __tmp_0   0x000000       data     static E:\3.46\pic18-lt\cxx-framework\src\pmc_common\ADC\adcread.c
                  __tmp_0   0x000000       data     static E:\3.46\pic18-lt\cxx-framework\src\pmc_common\USART\uopen.c
                  __tmp_0   0x000000       data     static E:\3.46\pic18-lt\cxx-framework\src\pmc_common\ADC\adcopen.c
                  __tmp_0   0x000000       data     static C:\Users\JUNIOR\Google Drive\Maua\Aplicada2-Pic\labintegrado2014\Firmware\controlador PI\main.c
                     SIGN   0x00001c       data     extern E:\3.46\pic18-lt\cxx-framework\src\traditional\math\cmath18.asm
                __FPFLAGS   0x00001d       data     extern E:\3.46\pic18-lt\cxx-framework\src\traditional\math\cmath18.asm
            __FPFLAGSbits   0x00001d       data     extern E:\3.46\pic18-lt\cxx-framework\src\traditional\math\cmath18.asm
                 __AARGB7   0x00001e       data     extern E:\3.46\pic18-lt\cxx-framework\src\traditional\math\aarg.asm
                  __REMB3   0x00001e       data     extern E:\3.46\pic18-lt\cxx-framework\src\traditional\math\aarg.asm
                 __AARGB6   0x00001f       data     extern E:\3.46\pic18-lt\cxx-framework\src\traditional\math\aarg.asm
                  __REMB2   0x00001f       data     extern E:\3.46\pic18-lt\cxx-framework\src\traditional\math\aarg.asm
                 __AARGB5   0x000020       data     extern E:\3.46\pic18-lt\cxx-framework\src\traditional\math\aarg.asm
                  __REMB1   0x000020       data     extern E:\3.46\pic18-lt\cxx-framework\src\traditional\math\aarg.asm
                  __REMB0   0x000021       data     extern E:\3.46\pic18-lt\cxx-framework\src\traditional\math\aarg.asm
                 __AARGB4   0x000021       data     extern E:\3.46\pic18-lt\cxx-framework\src\traditional\math\aarg.asm
                 __AARGB3   0x000022       data     extern E:\3.46\pic18-lt\cxx-framework\src\traditional\math\aarg.asm
                 __AARGB2   0x000023       data     extern E:\3.46\pic18-lt\cxx-framework\src\traditional\math\aarg.asm
                 __AARGB1   0x000024       data     extern E:\3.46\pic18-lt\cxx-framework\src\traditional\math\aarg.asm
                 __AARGB0   0x000025       data     extern E:\3.46\pic18-lt\cxx-framework\src\traditional\math\aarg.asm
                   __AEXP   0x000026       data     extern E:\3.46\pic18-lt\cxx-framework\src\traditional\math\aarg.asm
                 __BARGB3   0x000027       data     extern E:\3.46\pic18-lt\cxx-framework\src\traditional\math\barg.asm
                 __BARGB2   0x000028       data     extern E:\3.46\pic18-lt\cxx-framework\src\traditional\math\barg.asm
                 __BARGB1   0x000029       data     extern E:\3.46\pic18-lt\cxx-framework\src\traditional\math\barg.asm
                 __BARGB0   0x00002a       data     extern E:\3.46\pic18-lt\cxx-framework\src\traditional\math\barg.asm
                   __BEXP   0x00002b       data     extern E:\3.46\pic18-lt\cxx-framework\src\traditional\math\barg.asm
                 __TEMPB3   0x00002c       data     extern E:\3.46\pic18-lt\cxx-framework\src\traditional\math\temparg.asm
                 __TEMPB2   0x00002d       data     extern E:\3.46\pic18-lt\cxx-framework\src\traditional\math\temparg.asm
                 __TEMPB1   0x00002e       data     extern E:\3.46\pic18-lt\cxx-framework\src\traditional\math\temparg.asm
                   __TEMP   0x00002f       data     extern E:\3.46\pic18-lt\cxx-framework\src\traditional\math\temparg.asm
                 __TEMPB0   0x00002f       data     extern E:\3.46\pic18-lt\cxx-framework\src\traditional\math\temparg.asm
            DelayCounter2   0x000030       data     extern E:\3.46\pic18-lt\cxx-framework\src\traditional\delays\delayd2.asm
            DelayCounter1   0x000031       data     extern E:\3.46\pic18-lt\cxx-framework\src\traditional\delays\delayd1.asm
                     dado   0x000080       data     extern C:\Users\JUNIOR\Google Drive\Maua\Aplicada2-Pic\labintegrado2014\Firmware\controlador PI\main.c
                      com   0x000081       data     extern C:\Users\JUNIOR\Google Drive\Maua\Aplicada2-Pic\labintegrado2014\Firmware\controlador PI\main.c
                 PORT_aux   0x000082       data     extern C:\Users\JUNIOR\Google Drive\Maua\Aplicada2-Pic\labintegrado2014\Firmware\controlador PI\main.c
          Valor_Inicial_L   0x000083       data     extern C:\Users\JUNIOR\Google Drive\Maua\Aplicada2-Pic\labintegrado2014\Firmware\controlador PI\main.c
          Valor_Inicial_H   0x000084       data     extern C:\Users\JUNIOR\Google Drive\Maua\Aplicada2-Pic\labintegrado2014\Firmware\controlador PI\main.c
                     Bot1   0x000085       data     extern C:\Users\JUNIOR\Google Drive\Maua\Aplicada2-Pic\labintegrado2014\Firmware\controlador PI\main.c
                     Bot2   0x000086       data     extern C:\Users\JUNIOR\Google Drive\Maua\Aplicada2-Pic\labintegrado2014\Firmware\controlador PI\main.c
                     Bot3   0x000087       data     extern C:\Users\JUNIOR\Google Drive\Maua\Aplicada2-Pic\labintegrado2014\Firmware\controlador PI\main.c
                     Bot4   0x000088       data     extern C:\Users\JUNIOR\Google Drive\Maua\Aplicada2-Pic\labintegrado2014\Firmware\controlador PI\main.c
                     Bot5   0x000089       data     extern C:\Users\JUNIOR\Google Drive\Maua\Aplicada2-Pic\labintegrado2014\Firmware\controlador PI\main.c
                     Bot6   0x00008a       data     extern C:\Users\JUNIOR\Google Drive\Maua\Aplicada2-Pic\labintegrado2014\Firmware\controlador PI\main.c
                     Bot7   0x00008b       data     extern C:\Users\JUNIOR\Google Drive\Maua\Aplicada2-Pic\labintegrado2014\Firmware\controlador PI\main.c
                     Bot8   0x00008c       data     extern C:\Users\JUNIOR\Google Drive\Maua\Aplicada2-Pic\labintegrado2014\Firmware\controlador PI\main.c
                     Bot9   0x00008d       data     extern C:\Users\JUNIOR\Google Drive\Maua\Aplicada2-Pic\labintegrado2014\Firmware\controlador PI\main.c
                     Bot0   0x00008e       data     extern C:\Users\JUNIOR\Google Drive\Maua\Aplicada2-Pic\labintegrado2014\Firmware\controlador PI\main.c
                 EntraRef   0x00008f       data     extern C:\Users\JUNIOR\Google Drive\Maua\Aplicada2-Pic\labintegrado2014\Firmware\controlador PI\main.c
                  ZeraRef   0x000090       data     extern C:\Users\JUNIOR\Google Drive\Maua\Aplicada2-Pic\labintegrado2014\Firmware\controlador PI\main.c
                 RecuaRef   0x000091       data     extern C:\Users\JUNIOR\Google Drive\Maua\Aplicada2-Pic\labintegrado2014\Firmware\controlador PI\main.c
                AvancaRef   0x000092       data     extern C:\Users\JUNIOR\Google Drive\Maua\Aplicada2-Pic\labintegrado2014\Firmware\controlador PI\main.c
               posicaolcd   0x000093       data     extern C:\Users\JUNIOR\Google Drive\Maua\Aplicada2-Pic\labintegrado2014\Firmware\controlador PI\main.c
                  xtablow   0x000094       data     extern C:\Users\JUNIOR\Google Drive\Maua\Aplicada2-Pic\labintegrado2014\Firmware\controlador PI\main.c
                   xtabhi   0x000095       data     extern C:\Users\JUNIOR\Google Drive\Maua\Aplicada2-Pic\labintegrado2014\Firmware\controlador PI\main.c
                     low1   0x000096       data     extern C:\Users\JUNIOR\Google Drive\Maua\Aplicada2-Pic\labintegrado2014\Firmware\controlador PI\main.c
                     low2   0x000097       data     extern C:\Users\JUNIOR\Google Drive\Maua\Aplicada2-Pic\labintegrado2014\Firmware\controlador PI\main.c
                      hi1   0x000098       data     extern C:\Users\JUNIOR\Google Drive\Maua\Aplicada2-Pic\labintegrado2014\Firmware\controlador PI\main.c
                      hi2   0x000099       data     extern C:\Users\JUNIOR\Google Drive\Maua\Aplicada2-Pic\labintegrado2014\Firmware\controlador PI\main.c
                        u   0x00009a       data     extern C:\Users\JUNIOR\Google Drive\Maua\Aplicada2-Pic\labintegrado2014\Firmware\controlador PI\main.c
                        x   0x00009b       data     extern C:\Users\JUNIOR\Google Drive\Maua\Aplicada2-Pic\labintegrado2014\Firmware\controlador PI\main.c
                        y   0x00009d       data     extern C:\Users\JUNIOR\Google Drive\Maua\Aplicada2-Pic\labintegrado2014\Firmware\controlador PI\main.c
                        i   0x00009f       data     extern C:\Users\JUNIOR\Google Drive\Maua\Aplicada2-Pic\labintegrado2014\Firmware\controlador PI\main.c
                      PWM   0x0000a1       data     extern C:\Users\JUNIOR\Google Drive\Maua\Aplicada2-Pic\labintegrado2014\Firmware\controlador PI\main.c
                      ui0   0x0000a3       data     extern C:\Users\JUNIOR\Google Drive\Maua\Aplicada2-Pic\labintegrado2014\Firmware\controlador PI\main.c
                       ui   0x0000a7       data     extern C:\Users\JUNIOR\Google Drive\Maua\Aplicada2-Pic\labintegrado2014\Firmware\controlador PI\main.c
                       up   0x0000ab       data     extern C:\Users\JUNIOR\Google Drive\Maua\Aplicada2-Pic\labintegrado2014\Firmware\controlador PI\main.c
                        e   0x0000af       data     extern C:\Users\JUNIOR\Google Drive\Maua\Aplicada2-Pic\labintegrado2014\Firmware\controlador PI\main.c
                       e0   0x0000b3       data     extern C:\Users\JUNIOR\Google Drive\Maua\Aplicada2-Pic\labintegrado2014\Firmware\controlador PI\main.c
                     temp   0x0000b7       data     extern C:\Users\JUNIOR\Google Drive\Maua\Aplicada2-Pic\labintegrado2014\Firmware\controlador PI\main.c
                      ref   0x0000bb       data     extern C:\Users\JUNIOR\Google Drive\Maua\Aplicada2-Pic\labintegrado2014\Firmware\controlador PI\main.c
                        t   0x0000bf       data     extern C:\Users\JUNIOR\Google Drive\Maua\Aplicada2-Pic\labintegrado2014\Firmware\controlador PI\main.c
                       ki   0x0000c3       data     extern C:\Users\JUNIOR\Google Drive\Maua\Aplicada2-Pic\labintegrado2014\Firmware\controlador PI\main.c
                       kp   0x0000c7       data     extern C:\Users\JUNIOR\Google Drive\Maua\Aplicada2-Pic\labintegrado2014\Firmware\controlador PI\main.c
                  dutyPWM   0x0000cb       data     extern C:\Users\JUNIOR\Google Drive\Maua\Aplicada2-Pic\labintegrado2014\Firmware\controlador PI\main.c
                     prom   0x0000cd       data     static E:\3.46\pic18-lt\cxx-framework\src\traditional\startup\c018i.c
                curr_byte   0x0000d0       data     static E:\3.46\pic18-lt\cxx-framework\src\traditional\startup\c018i.c
               curr_entry   0x0000d2       data     static E:\3.46\pic18-lt\cxx-framework\src\traditional\startup\c018i.c
                 data_ptr   0x0000d4       data     static E:\3.46\pic18-lt\cxx-framework\src\traditional\startup\c018i.c
             USART_Status   0x0000d7       data     extern E:\3.46\pic18-lt\cxx-framework\src\pmc_common\USART\udefs.c
                    PORTA   0x000f80       data     extern E:\3.46\pic18-lt\cxx-framework\src\traditional\proc\p18f4520.asm
                PORTAbits   0x000f80       data     extern E:\3.46\pic18-lt\cxx-framework\src\traditional\proc\p18f4520.asm
                    PORTB   0x000f81       data     extern E:\3.46\pic18-lt\cxx-framework\src\traditional\proc\p18f4520.asm
                PORTBbits   0x000f81       data     extern E:\3.46\pic18-lt\cxx-framework\src\traditional\proc\p18f4520.asm
                    PORTC   0x000f82       data     extern E:\3.46\pic18-lt\cxx-framework\src\traditional\proc\p18f4520.asm
                PORTCbits   0x000f82       data     extern E:\3.46\pic18-lt\cxx-framework\src\traditional\proc\p18f4520.asm
                    PORTD   0x000f83       data     extern E:\3.46\pic18-lt\cxx-framework\src\traditional\proc\p18f4520.asm
                PORTDbits   0x000f83       data     extern E:\3.46\pic18-lt\cxx-framework\src\traditional\proc\p18f4520.asm
                    PORTE   0x000f84       data     extern E:\3.46\pic18-lt\cxx-framework\src\traditional\proc\p18f4520.asm
                PORTEbits   0x000f84       data     extern E:\3.46\pic18-lt\cxx-framework\src\traditional\proc\p18f4520.asm
                     LATA   0x000f89       data     extern E:\3.46\pic18-lt\cxx-framework\src\traditional\proc\p18f4520.asm
                 LATAbits   0x000f89       data     extern E:\3.46\pic18-lt\cxx-framework\src\traditional\proc\p18f4520.asm
                 LATBbits   0x000f8a       data     extern E:\3.46\pic18-lt\cxx-framework\src\traditional\proc\p18f4520.asm
                     LATB   0x000f8a       data     extern E:\3.46\pic18-lt\cxx-framework\src\traditional\proc\p18f4520.asm
                 LATCbits   0x000f8b       data     extern E:\3.46\pic18-lt\cxx-framework\src\traditional\proc\p18f4520.asm
                     LATC   0x000f8b       data     extern E:\3.46\pic18-lt\cxx-framework\src\traditional\proc\p18f4520.asm
                     LATD   0x000f8c       data     extern E:\3.46\pic18-lt\cxx-framework\src\traditional\proc\p18f4520.asm
                 LATDbits   0x000f8c       data     extern E:\3.46\pic18-lt\cxx-framework\src\traditional\proc\p18f4520.asm
                     LATE   0x000f8d       data     extern E:\3.46\pic18-lt\cxx-framework\src\traditional\proc\p18f4520.asm
                 LATEbits   0x000f8d       data     extern E:\3.46\pic18-lt\cxx-framework\src\traditional\proc\p18f4520.asm
                     DDRA   0x000f92       data     extern E:\3.46\pic18-lt\cxx-framework\src\traditional\proc\p18f4520.asm
                 DDRAbits   0x000f92       data     extern E:\3.46\pic18-lt\cxx-framework\src\traditional\proc\p18f4520.asm
                TRISAbits   0x000f92       data     extern E:\3.46\pic18-lt\cxx-framework\src\traditional\proc\p18f4520.asm
                    TRISA   0x000f92       data     extern E:\3.46\pic18-lt\cxx-framework\src\traditional\proc\p18f4520.asm
                TRISBbits   0x000f93       data     extern E:\3.46\pic18-lt\cxx-framework\src\traditional\proc\p18f4520.asm
                    TRISB   0x000f93       data     extern E:\3.46\pic18-lt\cxx-framework\src\traditional\proc\p18f4520.asm
                     DDRB   0x000f93       data     extern E:\3.46\pic18-lt\cxx-framework\src\traditional\proc\p18f4520.asm
                 DDRBbits   0x000f93       data     extern E:\3.46\pic18-lt\cxx-framework\src\traditional\proc\p18f4520.asm
                TRISCbits   0x000f94       data     extern E:\3.46\pic18-lt\cxx-framework\src\traditional\proc\p18f4520.asm
                    TRISC   0x000f94       data     extern E:\3.46\pic18-lt\cxx-framework\src\traditional\proc\p18f4520.asm
                 DDRCbits   0x000f94       data     extern E:\3.46\pic18-lt\cxx-framework\src\traditional\proc\p18f4520.asm
                     DDRC   0x000f94       data     extern E:\3.46\pic18-lt\cxx-framework\src\traditional\proc\p18f4520.asm
                TRISDbits   0x000f95       data     extern E:\3.46\pic18-lt\cxx-framework\src\traditional\proc\p18f4520.asm
                    TRISD   0x000f95       data     extern E:\3.46\pic18-lt\cxx-framework\src\traditional\proc\p18f4520.asm
                 DDRDbits   0x000f95       data     extern E:\3.46\pic18-lt\cxx-framework\src\traditional\proc\p18f4520.asm
                     DDRD   0x000f95       data     extern E:\3.46\pic18-lt\cxx-framework\src\traditional\proc\p18f4520.asm
                 DDREbits   0x000f96       data     extern E:\3.46\pic18-lt\cxx-framework\src\traditional\proc\p18f4520.asm
                     DDRE   0x000f96       data     extern E:\3.46\pic18-lt\cxx-framework\src\traditional\proc\p18f4520.asm
                    TRISE   0x000f96       data     extern E:\3.46\pic18-lt\cxx-framework\src\traditional\proc\p18f4520.asm
                TRISEbits   0x000f96       data     extern E:\3.46\pic18-lt\cxx-framework\src\traditional\proc\p18f4520.asm
                  OSCTUNE   0x000f9b       data     extern E:\3.46\pic18-lt\cxx-framework\src\traditional\proc\p18f4520.asm
              OSCTUNEbits   0x000f9b       data     extern E:\3.46\pic18-lt\cxx-framework\src\traditional\proc\p18f4520.asm
                 PIE1bits   0x000f9d       data     extern E:\3.46\pic18-lt\cxx-framework\src\traditional\proc\p18f4520.asm
                     PIE1   0x000f9d       data     extern E:\3.46\pic18-lt\cxx-framework\src\traditional\proc\p18f4520.asm
                 PIR1bits   0x000f9e       data     extern E:\3.46\pic18-lt\cxx-framework\src\traditional\proc\p18f4520.asm
                     PIR1   0x000f9e       data     extern E:\3.46\pic18-lt\cxx-framework\src\traditional\proc\p18f4520.asm
                 IPR1bits   0x000f9f       data     extern E:\3.46\pic18-lt\cxx-framework\src\traditional\proc\p18f4520.asm
                     IPR1   0x000f9f       data     extern E:\3.46\pic18-lt\cxx-framework\src\traditional\proc\p18f4520.asm
                     PIE2   0x000fa0       data     extern E:\3.46\pic18-lt\cxx-framework\src\traditional\proc\p18f4520.asm
                 PIE2bits   0x000fa0       data     extern E:\3.46\pic18-lt\cxx-framework\src\traditional\proc\p18f4520.asm
                     PIR2   0x000fa1       data     extern E:\3.46\pic18-lt\cxx-framework\src\traditional\proc\p18f4520.asm
                 PIR2bits   0x000fa1       data     extern E:\3.46\pic18-lt\cxx-framework\src\traditional\proc\p18f4520.asm
                 IPR2bits   0x000fa2       data     extern E:\3.46\pic18-lt\cxx-framework\src\traditional\proc\p18f4520.asm
                     IPR2   0x000fa2       data     extern E:\3.46\pic18-lt\cxx-framework\src\traditional\proc\p18f4520.asm
               EECON1bits   0x000fa6       data     extern E:\3.46\pic18-lt\cxx-framework\src\traditional\proc\p18f4520.asm
                   EECON1   0x000fa6       data     extern E:\3.46\pic18-lt\cxx-framework\src\traditional\proc\p18f4520.asm
                   EECON2   0x000fa7       data     extern E:\3.46\pic18-lt\cxx-framework\src\traditional\proc\p18f4520.asm
                   EEDATA   0x000fa8       data     extern E:\3.46\pic18-lt\cxx-framework\src\traditional\proc\p18f4520.asm
                    EEADR   0x000fa9       data     extern E:\3.46\pic18-lt\cxx-framework\src\traditional\proc\p18f4520.asm
                    RCSTA   0x000fab       data     extern E:\3.46\pic18-lt\cxx-framework\src\traditional\proc\p18f4520.asm
                RCSTAbits   0x000fab       data     extern E:\3.46\pic18-lt\cxx-framework\src\traditional\proc\p18f4520.asm
                    TXSTA   0x000fac       data     extern E:\3.46\pic18-lt\cxx-framework\src\traditional\proc\p18f4520.asm
                TXSTAbits   0x000fac       data     extern E:\3.46\pic18-lt\cxx-framework\src\traditional\proc\p18f4520.asm
                    TXREG   0x000fad       data     extern E:\3.46\pic18-lt\cxx-framework\src\traditional\proc\p18f4520.asm
                    RCREG   0x000fae       data     extern E:\3.46\pic18-lt\cxx-framework\src\traditional\proc\p18f4520.asm
                    SPBRG   0x000faf       data     extern E:\3.46\pic18-lt\cxx-framework\src\traditional\proc\p18f4520.asm
                   SPBRGH   0x000fb0       data     extern E:\3.46\pic18-lt\cxx-framework\src\traditional\proc\p18f4520.asm
                T3CONbits   0x000fb1       data     extern E:\3.46\pic18-lt\cxx-framework\src\traditional\proc\p18f4520.asm
                    T3CON   0x000fb1       data     extern E:\3.46\pic18-lt\cxx-framework\src\traditional\proc\p18f4520.asm
                    TMR3L   0x000fb2       data     extern E:\3.46\pic18-lt\cxx-framework\src\traditional\proc\p18f4520.asm
                    TMR3H   0x000fb3       data     extern E:\3.46\pic18-lt\cxx-framework\src\traditional\proc\p18f4520.asm
                CMCONbits   0x000fb4       data     extern E:\3.46\pic18-lt\cxx-framework\src\traditional\proc\p18f4520.asm
                    CMCON   0x000fb4       data     extern E:\3.46\pic18-lt\cxx-framework\src\traditional\proc\p18f4520.asm
               CVRCONbits   0x000fb5       data     extern E:\3.46\pic18-lt\cxx-framework\src\traditional\proc\p18f4520.asm
                   CVRCON   0x000fb5       data     extern E:\3.46\pic18-lt\cxx-framework\src\traditional\proc\p18f4520.asm
               ECCPASbits   0x000fb6       data     extern E:\3.46\pic18-lt\cxx-framework\src\traditional\proc\p18f4520.asm
                   ECCPAS   0x000fb6       data     extern E:\3.46\pic18-lt\cxx-framework\src\traditional\proc\p18f4520.asm
              ECCP1ASbits   0x000fb6       data     extern E:\3.46\pic18-lt\cxx-framework\src\traditional\proc\p18f4520.asm
                  ECCP1AS   0x000fb6       data     extern E:\3.46\pic18-lt\cxx-framework\src\traditional\proc\p18f4520.asm
             ECCP1DELbits   0x000fb7       data     extern E:\3.46\pic18-lt\cxx-framework\src\traditional\proc\p18f4520.asm
                 ECCP1DEL   0x000fb7       data     extern E:\3.46\pic18-lt\cxx-framework\src\traditional\proc\p18f4520.asm
                  PWM1CON   0x000fb7       data     extern E:\3.46\pic18-lt\cxx-framework\src\traditional\proc\p18f4520.asm
              PWM1CONbits   0x000fb7       data     extern E:\3.46\pic18-lt\cxx-framework\src\traditional\proc\p18f4520.asm
              BAUDCTLbits   0x000fb8       data     extern E:\3.46\pic18-lt\cxx-framework\src\traditional\proc\p18f4520.asm
                  BAUDCTL   0x000fb8       data     extern E:\3.46\pic18-lt\cxx-framework\src\traditional\proc\p18f4520.asm
              BAUDCONbits   0x000fb8       data     extern E:\3.46\pic18-lt\cxx-framework\src\traditional\proc\p18f4520.asm
                  BAUDCON   0x000fb8       data     extern E:\3.46\pic18-lt\cxx-framework\src\traditional\proc\p18f4520.asm
                  CCP2CON   0x000fba       data     extern E:\3.46\pic18-lt\cxx-framework\src\traditional\proc\p18f4520.asm
              CCP2CONbits   0x000fba       data     extern E:\3.46\pic18-lt\cxx-framework\src\traditional\proc\p18f4520.asm
                   CCPR2L   0x000fbb       data     extern E:\3.46\pic18-lt\cxx-framework\src\traditional\proc\p18f4520.asm
                    CCPR2   0x000fbb       data     extern E:\3.46\pic18-lt\cxx-framework\src\traditional\proc\p18f4520.asm
                   CCPR2H   0x000fbc       data     extern E:\3.46\pic18-lt\cxx-framework\src\traditional\proc\p18f4520.asm
                  CCP1CON   0x000fbd       data     extern E:\3.46\pic18-lt\cxx-framework\src\traditional\proc\p18f4520.asm
              CCP1CONbits   0x000fbd       data     extern E:\3.46\pic18-lt\cxx-framework\src\traditional\proc\p18f4520.asm
                   CCPR1L   0x000fbe       data     extern E:\3.46\pic18-lt\cxx-framework\src\traditional\proc\p18f4520.asm
                    CCPR1   0x000fbe       data     extern E:\3.46\pic18-lt\cxx-framework\src\traditional\proc\p18f4520.asm
                   CCPR1H   0x000fbf       data     extern E:\3.46\pic18-lt\cxx-framework\src\traditional\proc\p18f4520.asm
               ADCON2bits   0x000fc0       data     extern E:\3.46\pic18-lt\cxx-framework\src\traditional\proc\p18f4520.asm
                   ADCON2   0x000fc0       data     extern E:\3.46\pic18-lt\cxx-framework\src\traditional\proc\p18f4520.asm
               ADCON1bits   0x000fc1       data     extern E:\3.46\pic18-lt\cxx-framework\src\traditional\proc\p18f4520.asm
                   ADCON1   0x000fc1       data     extern E:\3.46\pic18-lt\cxx-framework\src\traditional\proc\p18f4520.asm
                   ADCON0   0x000fc2       data     extern E:\3.46\pic18-lt\cxx-framework\src\traditional\proc\p18f4520.asm
               ADCON0bits   0x000fc2       data     extern E:\3.46\pic18-lt\cxx-framework\src\traditional\proc\p18f4520.asm
                    ADRES   0x000fc3       data     extern E:\3.46\pic18-lt\cxx-framework\src\traditional\proc\p18f4520.asm
                   ADRESL   0x000fc3       data     extern E:\3.46\pic18-lt\cxx-framework\src\traditional\proc\p18f4520.asm
                   ADRESH   0x000fc4       data     extern E:\3.46\pic18-lt\cxx-framework\src\traditional\proc\p18f4520.asm
                  SSPCON2   0x000fc5       data     extern E:\3.46\pic18-lt\cxx-framework\src\traditional\proc\p18f4520.asm
              SSPCON2bits   0x000fc5       data     extern E:\3.46\pic18-lt\cxx-framework\src\traditional\proc\p18f4520.asm
                  SSPCON1   0x000fc6       data     extern E:\3.46\pic18-lt\cxx-framework\src\traditional\proc\p18f4520.asm
              SSPCON1bits   0x000fc6       data     extern E:\3.46\pic18-lt\cxx-framework\src\traditional\proc\p18f4520.asm
                  SSPSTAT   0x000fc7       data     extern E:\3.46\pic18-lt\cxx-framework\src\traditional\proc\p18f4520.asm
              SSPSTATbits   0x000fc7       data     extern E:\3.46\pic18-lt\cxx-framework\src\traditional\proc\p18f4520.asm
                   SSPADD   0x000fc8       data     extern E:\3.46\pic18-lt\cxx-framework\src\traditional\proc\p18f4520.asm
                   SSPBUF   0x000fc9       data     extern E:\3.46\pic18-lt\cxx-framework\src\traditional\proc\p18f4520.asm
                T2CONbits   0x000fca       data     extern E:\3.46\pic18-lt\cxx-framework\src\traditional\proc\p18f4520.asm
                    T2CON   0x000fca       data     extern E:\3.46\pic18-lt\cxx-framework\src\traditional\proc\p18f4520.asm
                      PR2   0x000fcb       data     extern E:\3.46\pic18-lt\cxx-framework\src\traditional\proc\p18f4520.asm
                     TMR2   0x000fcc       data     extern E:\3.46\pic18-lt\cxx-framework\src\traditional\proc\p18f4520.asm
                T1CONbits   0x000fcd       data     extern E:\3.46\pic18-lt\cxx-framework\src\traditional\proc\p18f4520.asm
                    T1CON   0x000fcd       data     extern E:\3.46\pic18-lt\cxx-framework\src\traditional\proc\p18f4520.asm
                    TMR1L   0x000fce       data     extern E:\3.46\pic18-lt\cxx-framework\src\traditional\proc\p18f4520.asm
                    TMR1H   0x000fcf       data     extern E:\3.46\pic18-lt\cxx-framework\src\traditional\proc\p18f4520.asm
                     RCON   0x000fd0       data     extern E:\3.46\pic18-lt\cxx-framework\src\traditional\proc\p18f4520.asm
                 RCONbits   0x000fd0       data     extern E:\3.46\pic18-lt\cxx-framework\src\traditional\proc\p18f4520.asm
                   WDTCON   0x000fd1       data     extern E:\3.46\pic18-lt\cxx-framework\src\traditional\proc\p18f4520.asm
               WDTCONbits   0x000fd1       data     extern E:\3.46\pic18-lt\cxx-framework\src\traditional\proc\p18f4520.asm
               LVDCONbits   0x000fd2       data     extern E:\3.46\pic18-lt\cxx-framework\src\traditional\proc\p18f4520.asm
                  HLVDCON   0x000fd2       data     extern E:\3.46\pic18-lt\cxx-framework\src\traditional\proc\p18f4520.asm
              HLVDCONbits   0x000fd2       data     extern E:\3.46\pic18-lt\cxx-framework\src\traditional\proc\p18f4520.asm
                   LVDCON   0x000fd2       data     extern E:\3.46\pic18-lt\cxx-framework\src\traditional\proc\p18f4520.asm
               OSCCONbits   0x000fd3       data     extern E:\3.46\pic18-lt\cxx-framework\src\traditional\proc\p18f4520.asm
                   OSCCON   0x000fd3       data     extern E:\3.46\pic18-lt\cxx-framework\src\traditional\proc\p18f4520.asm
                    T0CON   0x000fd5       data     extern E:\3.46\pic18-lt\cxx-framework\src\traditional\proc\p18f4520.asm
                T0CONbits   0x000fd5       data     extern E:\3.46\pic18-lt\cxx-framework\src\traditional\proc\p18f4520.asm
                    TMR0L   0x000fd6       data     extern E:\3.46\pic18-lt\cxx-framework\src\traditional\proc\p18f4520.asm
                    TMR0H   0x000fd7       data     extern E:\3.46\pic18-lt\cxx-framework\src\traditional\proc\p18f4520.asm
                   STATUS   0x000fd8       data     extern E:\3.46\pic18-lt\cxx-framework\src\traditional\proc\p18f4520.asm
               STATUSbits   0x000fd8       data     extern E:\3.46\pic18-lt\cxx-framework\src\traditional\proc\p18f4520.asm
                    FSR2L   0x000fd9       data     extern E:\3.46\pic18-lt\cxx-framework\src\traditional\proc\p18f4520.asm
                     FSR2   0x000fd9       data     extern E:\3.46\pic18-lt\cxx-framework\src\traditional\proc\p18f4520.asm
                    FSR2H   0x000fda       data     extern E:\3.46\pic18-lt\cxx-framework\src\traditional\proc\p18f4520.asm
                   PLUSW2   0x000fdb       data     extern E:\3.46\pic18-lt\cxx-framework\src\traditional\proc\p18f4520.asm
                  PREINC2   0x000fdc       data     extern E:\3.46\pic18-lt\cxx-framework\src\traditional\proc\p18f4520.asm
                 POSTDEC2   0x000fdd       data     extern E:\3.46\pic18-lt\cxx-framework\src\traditional\proc\p18f4520.asm
                 POSTINC2   0x000fde       data     extern E:\3.46\pic18-lt\cxx-framework\src\traditional\proc\p18f4520.asm
                    INDF2   0x000fdf       data     extern E:\3.46\pic18-lt\cxx-framework\src\traditional\proc\p18f4520.asm
                      BSR   0x000fe0       data     extern E:\3.46\pic18-lt\cxx-framework\src\traditional\proc\p18f4520.asm
                     FSR1   0x000fe1       data     extern E:\3.46\pic18-lt\cxx-framework\src\traditional\proc\p18f4520.asm
                    FSR1L   0x000fe1       data     extern E:\3.46\pic18-lt\cxx-framework\src\traditional\proc\p18f4520.asm
                    FSR1H   0x000fe2       data     extern E:\3.46\pic18-lt\cxx-framework\src\traditional\proc\p18f4520.asm
                   PLUSW1   0x000fe3       data     extern E:\3.46\pic18-lt\cxx-framework\src\traditional\proc\p18f4520.asm
                  PREINC1   0x000fe4       data     extern E:\3.46\pic18-lt\cxx-framework\src\traditional\proc\p18f4520.asm
                 POSTDEC1   0x000fe5       data     extern E:\3.46\pic18-lt\cxx-framework\src\traditional\proc\p18f4520.asm
                 POSTINC1   0x000fe6       data     extern E:\3.46\pic18-lt\cxx-framework\src\traditional\proc\p18f4520.asm
                    INDF1   0x000fe7       data     extern E:\3.46\pic18-lt\cxx-framework\src\traditional\proc\p18f4520.asm
                        W   0x000fe8       data     extern E:\3.46\pic18-lt\cxx-framework\src\traditional\proc\p18f4520.asm
                     WREG   0x000fe8       data     extern E:\3.46\pic18-lt\cxx-framework\src\traditional\proc\p18f4520.asm
                    FSR0L   0x000fe9       data     extern E:\3.46\pic18-lt\cxx-framework\src\traditional\proc\p18f4520.asm
                     FSR0   0x000fe9       data     extern E:\3.46\pic18-lt\cxx-framework\src\traditional\proc\p18f4520.asm
                    FSR0H   0x000fea       data     extern E:\3.46\pic18-lt\cxx-framework\src\traditional\proc\p18f4520.asm
                   PLUSW0   0x000feb       data     extern E:\3.46\pic18-lt\cxx-framework\src\traditional\proc\p18f4520.asm
                  PREINC0   0x000fec       data     extern E:\3.46\pic18-lt\cxx-framework\src\traditional\proc\p18f4520.asm
                 POSTDEC0   0x000fed       data     extern E:\3.46\pic18-lt\cxx-framework\src\traditional\proc\p18f4520.asm
                 POSTINC0   0x000fee       data     extern E:\3.46\pic18-lt\cxx-framework\src\traditional\proc\p18f4520.asm
                    INDF0   0x000fef       data     extern E:\3.46\pic18-lt\cxx-framework\src\traditional\proc\p18f4520.asm
                  INTCON3   0x000ff0       data     extern E:\3.46\pic18-lt\cxx-framework\src\traditional\proc\p18f4520.asm
              INTCON3bits   0x000ff0       data     extern E:\3.46\pic18-lt\cxx-framework\src\traditional\proc\p18f4520.asm
              INTCON2bits   0x000ff1       data     extern E:\3.46\pic18-lt\cxx-framework\src\traditional\proc\p18f4520.asm
                  INTCON2   0x000ff1       data     extern E:\3.46\pic18-lt\cxx-framework\src\traditional\proc\p18f4520.asm
                   INTCON   0x000ff2       data     extern E:\3.46\pic18-lt\cxx-framework\src\traditional\proc\p18f4520.asm
               INTCONbits   0x000ff2       data     extern E:\3.46\pic18-lt\cxx-framework\src\traditional\proc\p18f4520.asm
                    PRODL   0x000ff3       data     extern E:\3.46\pic18-lt\cxx-framework\src\traditional\proc\p18f4520.asm
                     PROD   0x000ff3       data     extern E:\3.46\pic18-lt\cxx-framework\src\traditional\proc\p18f4520.asm
                    PRODH   0x000ff4       data     extern E:\3.46\pic18-lt\cxx-framework\src\traditional\proc\p18f4520.asm
                   TABLAT   0x000ff5       data     extern E:\3.46\pic18-lt\cxx-framework\src\traditional\proc\p18f4520.asm
                   TBLPTR   0x000ff6       data     extern E:\3.46\pic18-lt\cxx-framework\src\traditional\proc\p18f4520.asm
                  TBLPTRL   0x000ff6       data     extern E:\3.46\pic18-lt\cxx-framework\src\traditional\proc\p18f4520.asm
                  TBLPTRH   0x000ff7       data     extern E:\3.46\pic18-lt\cxx-framework\src\traditional\proc\p18f4520.asm
                  TBLPTRU   0x000ff8       data     extern E:\3.46\pic18-lt\cxx-framework\src\traditional\proc\p18f4520.asm
                      PCL   0x000ff9       data     extern E:\3.46\pic18-lt\cxx-framework\src\traditional\proc\p18f4520.asm
                       PC   0x000ff9       data     extern E:\3.46\pic18-lt\cxx-framework\src\traditional\proc\p18f4520.asm
                   PCLATH   0x000ffa       data     extern E:\3.46\pic18-lt\cxx-framework\src\traditional\proc\p18f4520.asm
                   PCLATU   0x000ffb       data     extern E:\3.46\pic18-lt\cxx-framework\src\traditional\proc\p18f4520.asm
               STKPTRbits   0x000ffc       data     extern E:\3.46\pic18-lt\cxx-framework\src\traditional\proc\p18f4520.asm
                   STKPTR   0x000ffc       data     extern E:\3.46\pic18-lt\cxx-framework\src\traditional\proc\p18f4520.asm
                      TOS   0x000ffd       data     extern E:\3.46\pic18-lt\cxx-framework\src\traditional\proc\p18f4520.asm
                     TOSL   0x000ffd       data     extern E:\3.46\pic18-lt\cxx-framework\src\traditional\proc\p18f4520.asm
                     TOSH   0x000ffe       data     extern E:\3.46\pic18-lt\cxx-framework\src\traditional\proc\p18f4520.asm
                     TOSU   0x000fff       data     extern E:\3.46\pic18-lt\cxx-framework\src\traditional\proc\p18f4520.asm


